	.file	"main.cpp"
 # GNU C++17 (Rev6, Built by MSYS2 project) version 13.1.0 (x86_64-w64-mingw32)
 #	compiled by GNU C version 13.1.0, GMP version 6.2.1, MPFR version 4.2.0-p4, MPC version 1.3.1, isl version isl-0.26-GMP

 # warning: MPFR header version 4.2.0-p4 differs from library version 4.2.0-p9.
 # GGC heuristics: --param ggc-min-expand=100 --param ggc-min-heapsize=131072
 # options passed: -mfma -mavx2 -mtune=generic -march=nocona -O3
	.text
	.section	.text$_ZNSt6thread24_M_thread_deps_never_runEv,"x"
	.linkonce discard
	.p2align 4
	.globl	_ZNSt6thread24_M_thread_deps_never_runEv
	.def	_ZNSt6thread24_M_thread_deps_never_runEv;	.scl	2;	.type	32;	.endef
	.seh_proc	_ZNSt6thread24_M_thread_deps_never_runEv
_ZNSt6thread24_M_thread_deps_never_runEv:
.LFB10820:
	.seh_endprologue
 # C:/msys64/ucrt64/include/c++/13.1.0/bits/std_thread.h:148:     }
	ret	
	.seh_endproc
	.section	.text$_ZNSt13__future_base13_State_baseV217_M_complete_asyncEv,"x"
	.linkonce discard
	.align 2
	.p2align 4
	.globl	_ZNSt13__future_base13_State_baseV217_M_complete_asyncEv
	.def	_ZNSt13__future_base13_State_baseV217_M_complete_asyncEv;	.scl	2;	.type	32;	.endef
	.seh_proc	_ZNSt13__future_base13_State_baseV217_M_complete_asyncEv
_ZNSt13__future_base13_State_baseV217_M_complete_asyncEv:
.LFB11719:
	.seh_endprologue
 # C:/msys64/ucrt64/include/c++/13.1.0/future:598:       virtual void _M_complete_async() { }
	ret	
	.seh_endproc
	.section	.text$_ZNKSt13__future_base13_State_baseV221_M_is_deferred_futureEv,"x"
	.linkonce discard
	.align 2
	.p2align 4
	.globl	_ZNKSt13__future_base13_State_baseV221_M_is_deferred_futureEv
	.def	_ZNKSt13__future_base13_State_baseV221_M_is_deferred_futureEv;	.scl	2;	.type	32;	.endef
	.seh_proc	_ZNKSt13__future_base13_State_baseV221_M_is_deferred_futureEv
_ZNKSt13__future_base13_State_baseV221_M_is_deferred_futureEv:
.LFB11720:
	.seh_endprologue
 # C:/msys64/ucrt64/include/c++/13.1.0/future:601:       virtual bool _M_is_deferred_future() const { return false; }
	xorl	%eax, %eax	 #
	ret	
	.seh_endproc
	.section	.text$_ZNSt13__future_base7_ResultIvE10_M_destroyEv,"x"
	.linkonce discard
	.align 2
	.p2align 4
	.globl	_ZNSt13__future_base7_ResultIvE10_M_destroyEv
	.def	_ZNSt13__future_base7_ResultIvE10_M_destroyEv;	.scl	2;	.type	32;	.endef
	.seh_proc	_ZNSt13__future_base7_ResultIvE10_M_destroyEv
_ZNSt13__future_base7_ResultIvE10_M_destroyEv:
.LFB11726:
	.seh_endprologue
 # C:/msys64/ucrt64/include/c++/13.1.0/future:672:       void _M_destroy() { delete this; }
	movq	(%rcx), %rax	 # this_3(D)->D.147292._vptr._Result_base, this_3(D)->D.147292._vptr._Result_base
	rex.W jmp	*16(%rax)	 # MEM[(int (*) () *)_1 + 16B]
	.seh_endproc
	.text
	.p2align 4
	.def	_ZZ13rebuild_list2RK7BoidMapRK8BoidListP12rebuild_argsP10TaskMasterP8TaskSyncENUlS8_P4TaskE_4_FUNES8_SC_;	.scl	3;	.type	32;	.endef
	.seh_proc	_ZZ13rebuild_list2RK7BoidMapRK8BoidListP12rebuild_argsP10TaskMasterP8TaskSyncENUlS8_P4TaskE_4_FUNES8_SC_
_ZZ13rebuild_list2RK7BoidMapRK8BoidListP12rebuild_argsP10TaskMasterP8TaskSyncENUlS8_P4TaskE_4_FUNES8_SC_:
.LFB12630:
	.seh_endprologue
 # .\src\main.cpp:1290:                         auto temp_boid_store = old_args->boid_list->m_boid_store;
	movq	8(%rdx), %rax	 # _3(D)->argument_struct, _3(D)->argument_struct
	movq	24(%rax), %rax	 # old_args_4->boid_list, _5
 # .\src\main.cpp:1290:                         auto temp_boid_store = old_args->boid_list->m_boid_store;
	vmovdqu	(%rax), %xmm1	 # MEM <vector(2) long long unsigned int> [(struct BoidStore * *)_5], tmp93
	vpalignr	$8, %xmm1, %xmm1, %xmm0	 #, tmp93, vect_temp_boid_store_6.1302
 # .\src\main.cpp:1291:                         old_args->boid_list->m_boid_store = old_args->boid_list->m_backbuffer;
	vmovdqu	%xmm0, (%rax)	 # vect_temp_boid_store_6.1302, MEM <vector(2) long long unsigned int> [(struct BoidStore * *)_5]
 # .\src\main.cpp:1293:                     }),
	ret	
	.seh_endproc
	.section	.text$_ZNSt15__exception_ptr12__dest_thunkISt12future_errorEEvPv,"x"
	.linkonce discard
	.p2align 4
	.globl	_ZNSt15__exception_ptr12__dest_thunkISt12future_errorEEvPv
	.def	_ZNSt15__exception_ptr12__dest_thunkISt12future_errorEEvPv;	.scl	2;	.type	32;	.endef
	.seh_proc	_ZNSt15__exception_ptr12__dest_thunkISt12future_errorEEvPv
_ZNSt15__exception_ptr12__dest_thunkISt12future_errorEEvPv:
.LFB13580:
	.seh_endprologue
 # C:/msys64/ucrt64/include/c++/13.1.0/bits/exception_ptr.h:238:       { static_cast<_Ex*>(__x)->~_Ex(); }
	movq	(%rcx), %rax	 # MEM[(struct future_error *)__x_4(D)].D.139703.D.41479._vptr.exception, MEM[(struct future_error *)__x_4(D)].D.139703.D.41479._vptr.exception
	rex.W jmp	*(%rax)	 # *_1
	.seh_endproc
	.section	.text$_ZNSt6thread11_State_implINS_8_InvokerISt5tupleIJMNSt13__future_base17_Async_state_implINS1_IS2_IJPFvibPK7BoidMapPK5RulesPK8BoidListEibS7_SA_SD_EEEEvEEFvvEPSI_EEEEE6_M_runEv,"x"
	.linkonce discard
	.align 2
	.p2align 4
	.globl	_ZNSt6thread11_State_implINS_8_InvokerISt5tupleIJMNSt13__future_base17_Async_state_implINS1_IS2_IJPFvibPK7BoidMapPK5RulesPK8BoidListEibS7_SA_SD_EEEEvEEFvvEPSI_EEEEE6_M_runEv
	.def	_ZNSt6thread11_State_implINS_8_InvokerISt5tupleIJMNSt13__future_base17_Async_state_implINS1_IS2_IJPFvibPK7BoidMapPK5RulesPK8BoidListEibS7_SA_SD_EEEEvEEFvvEPSI_EEEEE6_M_runEv;	.scl	2;	.type	32;	.endef
	.seh_proc	_ZNSt6thread11_State_implINS_8_InvokerISt5tupleIJMNSt13__future_base17_Async_state_implINS1_IS2_IJPFvibPK7BoidMapPK5RulesPK8BoidListEibS7_SA_SD_EEEEvEEFvvEPSI_EEEEE6_M_runEv
_ZNSt6thread11_State_implINS_8_InvokerISt5tupleIJMNSt13__future_base17_Async_state_implINS1_IS2_IJPFvibPK7BoidMapPK5RulesPK8BoidListEibS7_SA_SD_EEEEvEEFvvEPSI_EEEEE6_M_runEv:
.LFB14945:
	.seh_endprologue
 # C:/msys64/ucrt64/include/c++/13.1.0/bits/invoke.h:74:       return ((*std::forward<_Tp>(__t)).*__f)(std::forward<_Args>(__args)...);
	movq	16(%rcx), %rdx	 # MEM[(struct  &)this_1(D) + 16].__pfn, _4
 # C:/msys64/ucrt64/include/c++/13.1.0/bits/std_thread.h:244: 	_M_run() { _M_func(); }
	movq	%rcx, %rax	 # tmp98, this
 # C:/msys64/ucrt64/include/c++/13.1.0/bits/invoke.h:74:       return ((*std::forward<_Tp>(__t)).*__f)(std::forward<_Args>(__args)...);
	movq	24(%rcx), %rcx	 # MEM[(struct  &)this_1(D) + 16].__delta, MEM[(struct  &)this_1(D) + 16].__delta
	addq	8(%rax), %rcx	 # MEM[(struct _Async_state_impl * &)this_1(D) + 8], _28
 # C:/msys64/ucrt64/include/c++/13.1.0/bits/invoke.h:74:       return ((*std::forward<_Tp>(__t)).*__f)(std::forward<_Args>(__args)...);
	testb	$1, %dl	 #, _4
	je	.L9	 #,
 # C:/msys64/ucrt64/include/c++/13.1.0/bits/invoke.h:74:       return ((*std::forward<_Tp>(__t)).*__f)(std::forward<_Args>(__args)...);
	movq	(%rcx), %rax	 # MEM[(int (*) () * *)_28], MEM[(int (*) () * *)_28]
	movq	-1(%rax,%rdx), %rdx	 # *_13, _4
.L9:
 # C:/msys64/ucrt64/include/c++/13.1.0/bits/std_thread.h:244: 	_M_run() { _M_func(); }
 # C:/msys64/ucrt64/include/c++/13.1.0/bits/invoke.h:74:       return ((*std::forward<_Tp>(__t)).*__f)(std::forward<_Args>(__args)...);
	rex.W jmp	*%rdx	 # _4
	.seh_endproc
	.section	.text$_ZNSt6thread11_State_implINS_8_InvokerISt5tupleIJMNSt13__future_base17_Async_state_implINS1_IS2_IJPFviPK8BoidListPK7BoidMapEiPS5_PS8_EEEEvEEFvvEPSH_EEEEE6_M_runEv,"x"
	.linkonce discard
	.align 2
	.p2align 4
	.globl	_ZNSt6thread11_State_implINS_8_InvokerISt5tupleIJMNSt13__future_base17_Async_state_implINS1_IS2_IJPFviPK8BoidListPK7BoidMapEiPS5_PS8_EEEEvEEFvvEPSH_EEEEE6_M_runEv
	.def	_ZNSt6thread11_State_implINS_8_InvokerISt5tupleIJMNSt13__future_base17_Async_state_implINS1_IS2_IJPFviPK8BoidListPK7BoidMapEiPS5_PS8_EEEEvEEFvvEPSH_EEEEE6_M_runEv;	.scl	2;	.type	32;	.endef
	.seh_proc	_ZNSt6thread11_State_implINS_8_InvokerISt5tupleIJMNSt13__future_base17_Async_state_implINS1_IS2_IJPFviPK8BoidListPK7BoidMapEiPS5_PS8_EEEEvEEFvvEPSH_EEEEE6_M_runEv
_ZNSt6thread11_State_implINS_8_InvokerISt5tupleIJMNSt13__future_base17_Async_state_implINS1_IS2_IJPFviPK8BoidListPK7BoidMapEiPS5_PS8_EEEEvEEFvvEPSH_EEEEE6_M_runEv:
.LFB14946:
	.seh_endprologue
 # C:/msys64/ucrt64/include/c++/13.1.0/bits/invoke.h:74:       return ((*std::forward<_Tp>(__t)).*__f)(std::forward<_Args>(__args)...);
	movq	16(%rcx), %rdx	 # MEM[(struct  &)this_1(D) + 16].__pfn, _4
 # C:/msys64/ucrt64/include/c++/13.1.0/bits/std_thread.h:244: 	_M_run() { _M_func(); }
	movq	%rcx, %rax	 # tmp98, this
 # C:/msys64/ucrt64/include/c++/13.1.0/bits/invoke.h:74:       return ((*std::forward<_Tp>(__t)).*__f)(std::forward<_Args>(__args)...);
	movq	24(%rcx), %rcx	 # MEM[(struct  &)this_1(D) + 16].__delta, MEM[(struct  &)this_1(D) + 16].__delta
	addq	8(%rax), %rcx	 # MEM[(struct _Async_state_impl * &)this_1(D) + 8], _28
 # C:/msys64/ucrt64/include/c++/13.1.0/bits/invoke.h:74:       return ((*std::forward<_Tp>(__t)).*__f)(std::forward<_Args>(__args)...);
	testb	$1, %dl	 #, _4
	je	.L14	 #,
 # C:/msys64/ucrt64/include/c++/13.1.0/bits/invoke.h:74:       return ((*std::forward<_Tp>(__t)).*__f)(std::forward<_Args>(__args)...);
	movq	(%rcx), %rax	 # MEM[(int (*) () * *)_28], MEM[(int (*) () * *)_28]
	movq	-1(%rax,%rdx), %rdx	 # *_13, _4
.L14:
 # C:/msys64/ucrt64/include/c++/13.1.0/bits/std_thread.h:244: 	_M_run() { _M_func(); }
 # C:/msys64/ucrt64/include/c++/13.1.0/bits/invoke.h:74:       return ((*std::forward<_Tp>(__t)).*__f)(std::forward<_Args>(__args)...);
	rex.W jmp	*%rdx	 # _4
	.seh_endproc
	.section	.text$_ZNSt23_Sp_counted_ptr_inplaceINSt13__future_base15_Deferred_stateINSt6thread8_InvokerISt5tupleIJPFvibPK7BoidMapPK5RulesPK8BoidListEibS7_SA_SD_EEEEvEESaIvELN9__gnu_cxx12_Lock_policyE2EED1Ev,"x"
	.linkonce discard
	.align 2
	.p2align 4
	.globl	_ZNSt23_Sp_counted_ptr_inplaceINSt13__future_base15_Deferred_stateINSt6thread8_InvokerISt5tupleIJPFvibPK7BoidMapPK5RulesPK8BoidListEibS7_SA_SD_EEEEvEESaIvELN9__gnu_cxx12_Lock_policyE2EED1Ev
	.def	_ZNSt23_Sp_counted_ptr_inplaceINSt13__future_base15_Deferred_stateINSt6thread8_InvokerISt5tupleIJPFvibPK7BoidMapPK5RulesPK8BoidListEibS7_SA_SD_EEEEvEESaIvELN9__gnu_cxx12_Lock_policyE2EED1Ev;	.scl	2;	.type	32;	.endef
	.seh_proc	_ZNSt23_Sp_counted_ptr_inplaceINSt13__future_base15_Deferred_stateINSt6thread8_InvokerISt5tupleIJPFvibPK7BoidMapPK5RulesPK8BoidListEibS7_SA_SD_EEEEvEESaIvELN9__gnu_cxx12_Lock_policyE2EED1Ev
_ZNSt23_Sp_counted_ptr_inplaceINSt13__future_base15_Deferred_stateINSt6thread8_InvokerISt5tupleIJPFvibPK7BoidMapPK5RulesPK8BoidListEibS7_SA_SD_EEEEvEESaIvELN9__gnu_cxx12_Lock_policyE2EED1Ev:
.LFB14949:
	.seh_endprologue
 # C:/msys64/ucrt64/include/c++/13.1.0/bits/shared_ptr_base.h:608:       ~_Sp_counted_ptr_inplace() noexcept { }
	ret	
	.seh_endproc
	.section	.text$_ZNSt23_Sp_counted_ptr_inplaceINSt13__future_base17_Async_state_implINSt6thread8_InvokerISt5tupleIJPFvibPK7BoidMapPK5RulesPK8BoidListEibS7_SA_SD_EEEEvEESaIvELN9__gnu_cxx12_Lock_policyE2EED1Ev,"x"
	.linkonce discard
	.align 2
	.p2align 4
	.globl	_ZNSt23_Sp_counted_ptr_inplaceINSt13__future_base17_Async_state_implINSt6thread8_InvokerISt5tupleIJPFvibPK7BoidMapPK5RulesPK8BoidListEibS7_SA_SD_EEEEvEESaIvELN9__gnu_cxx12_Lock_policyE2EED1Ev
	.def	_ZNSt23_Sp_counted_ptr_inplaceINSt13__future_base17_Async_state_implINSt6thread8_InvokerISt5tupleIJPFvibPK7BoidMapPK5RulesPK8BoidListEibS7_SA_SD_EEEEvEESaIvELN9__gnu_cxx12_Lock_policyE2EED1Ev;	.scl	2;	.type	32;	.endef
	.seh_proc	_ZNSt23_Sp_counted_ptr_inplaceINSt13__future_base17_Async_state_implINSt6thread8_InvokerISt5tupleIJPFvibPK7BoidMapPK5RulesPK8BoidListEibS7_SA_SD_EEEEvEESaIvELN9__gnu_cxx12_Lock_policyE2EED1Ev
_ZNSt23_Sp_counted_ptr_inplaceINSt13__future_base17_Async_state_implINSt6thread8_InvokerISt5tupleIJPFvibPK7BoidMapPK5RulesPK8BoidListEibS7_SA_SD_EEEEvEESaIvELN9__gnu_cxx12_Lock_policyE2EED1Ev:
.LFB14956:
	.seh_endprologue
 # C:/msys64/ucrt64/include/c++/13.1.0/bits/shared_ptr_base.h:608:       ~_Sp_counted_ptr_inplace() noexcept { }
	ret	
	.seh_endproc
	.section	.text$_ZNSt23_Sp_counted_ptr_inplaceINSt13__future_base15_Deferred_stateINSt6thread8_InvokerISt5tupleIJPFviPK8BoidListPK7BoidMapEiPS5_PS8_EEEEvEESaIvELN9__gnu_cxx12_Lock_policyE2EED1Ev,"x"
	.linkonce discard
	.align 2
	.p2align 4
	.globl	_ZNSt23_Sp_counted_ptr_inplaceINSt13__future_base15_Deferred_stateINSt6thread8_InvokerISt5tupleIJPFviPK8BoidListPK7BoidMapEiPS5_PS8_EEEEvEESaIvELN9__gnu_cxx12_Lock_policyE2EED1Ev
	.def	_ZNSt23_Sp_counted_ptr_inplaceINSt13__future_base15_Deferred_stateINSt6thread8_InvokerISt5tupleIJPFviPK8BoidListPK7BoidMapEiPS5_PS8_EEEEvEESaIvELN9__gnu_cxx12_Lock_policyE2EED1Ev;	.scl	2;	.type	32;	.endef
	.seh_proc	_ZNSt23_Sp_counted_ptr_inplaceINSt13__future_base15_Deferred_stateINSt6thread8_InvokerISt5tupleIJPFviPK8BoidListPK7BoidMapEiPS5_PS8_EEEEvEESaIvELN9__gnu_cxx12_Lock_policyE2EED1Ev
_ZNSt23_Sp_counted_ptr_inplaceINSt13__future_base15_Deferred_stateINSt6thread8_InvokerISt5tupleIJPFviPK8BoidListPK7BoidMapEiPS5_PS8_EEEEvEESaIvELN9__gnu_cxx12_Lock_policyE2EED1Ev:
.LFB14963:
	.seh_endprologue
 # C:/msys64/ucrt64/include/c++/13.1.0/bits/shared_ptr_base.h:608:       ~_Sp_counted_ptr_inplace() noexcept { }
	ret	
	.seh_endproc
	.section	.text$_ZNSt23_Sp_counted_ptr_inplaceINSt13__future_base17_Async_state_implINSt6thread8_InvokerISt5tupleIJPFviPK8BoidListPK7BoidMapEiPS5_PS8_EEEEvEESaIvELN9__gnu_cxx12_Lock_policyE2EED1Ev,"x"
	.linkonce discard
	.align 2
	.p2align 4
	.globl	_ZNSt23_Sp_counted_ptr_inplaceINSt13__future_base17_Async_state_implINSt6thread8_InvokerISt5tupleIJPFviPK8BoidListPK7BoidMapEiPS5_PS8_EEEEvEESaIvELN9__gnu_cxx12_Lock_policyE2EED1Ev
	.def	_ZNSt23_Sp_counted_ptr_inplaceINSt13__future_base17_Async_state_implINSt6thread8_InvokerISt5tupleIJPFviPK8BoidListPK7BoidMapEiPS5_PS8_EEEEvEESaIvELN9__gnu_cxx12_Lock_policyE2EED1Ev;	.scl	2;	.type	32;	.endef
	.seh_proc	_ZNSt23_Sp_counted_ptr_inplaceINSt13__future_base17_Async_state_implINSt6thread8_InvokerISt5tupleIJPFviPK8BoidListPK7BoidMapEiPS5_PS8_EEEEvEESaIvELN9__gnu_cxx12_Lock_policyE2EED1Ev
_ZNSt23_Sp_counted_ptr_inplaceINSt13__future_base17_Async_state_implINSt6thread8_InvokerISt5tupleIJPFviPK8BoidListPK7BoidMapEiPS5_PS8_EEEEvEESaIvELN9__gnu_cxx12_Lock_policyE2EED1Ev:
.LFB14970:
	.seh_endprologue
 # C:/msys64/ucrt64/include/c++/13.1.0/bits/shared_ptr_base.h:608:       ~_Sp_counted_ptr_inplace() noexcept { }
	ret	
	.seh_endproc
	.section	.text$_ZNKSt13__future_base15_Deferred_stateINSt6thread8_InvokerISt5tupleIJPFvibPK7BoidMapPK5RulesPK8BoidListEibS6_S9_SC_EEEEvE21_M_is_deferred_futureEv,"x"
	.linkonce discard
	.align 2
	.p2align 4
	.globl	_ZNKSt13__future_base15_Deferred_stateINSt6thread8_InvokerISt5tupleIJPFvibPK7BoidMapPK5RulesPK8BoidListEibS6_S9_SC_EEEEvE21_M_is_deferred_futureEv
	.def	_ZNKSt13__future_base15_Deferred_stateINSt6thread8_InvokerISt5tupleIJPFvibPK7BoidMapPK5RulesPK8BoidListEibS6_S9_SC_EEEEvE21_M_is_deferred_futureEv;	.scl	2;	.type	32;	.endef
	.seh_proc	_ZNKSt13__future_base15_Deferred_stateINSt6thread8_InvokerISt5tupleIJPFvibPK7BoidMapPK5RulesPK8BoidListEibS6_S9_SC_EEEEvE21_M_is_deferred_futureEv
_ZNKSt13__future_base15_Deferred_stateINSt6thread8_InvokerISt5tupleIJPFvibPK7BoidMapPK5RulesPK8BoidListEibS6_S9_SC_EEEEvE21_M_is_deferred_futureEv:
.LFB14990:
	.seh_endprologue
 # C:/msys64/ucrt64/include/c++/13.1.0/future:1710:       virtual bool _M_is_deferred_future() const { return true; }
	movl	$1, %eax	 #,
	ret	
	.seh_endproc
	.section	.text$_ZNKSt13__future_base15_Deferred_stateINSt6thread8_InvokerISt5tupleIJPFviPK8BoidListPK7BoidMapEiPS4_PS7_EEEEvE21_M_is_deferred_futureEv,"x"
	.linkonce discard
	.align 2
	.p2align 4
	.globl	_ZNKSt13__future_base15_Deferred_stateINSt6thread8_InvokerISt5tupleIJPFviPK8BoidListPK7BoidMapEiPS4_PS7_EEEEvE21_M_is_deferred_futureEv
	.def	_ZNKSt13__future_base15_Deferred_stateINSt6thread8_InvokerISt5tupleIJPFviPK8BoidListPK7BoidMapEiPS4_PS7_EEEEvE21_M_is_deferred_futureEv;	.scl	2;	.type	32;	.endef
	.seh_proc	_ZNKSt13__future_base15_Deferred_stateINSt6thread8_InvokerISt5tupleIJPFviPK8BoidListPK7BoidMapEiPS4_PS7_EEEEvE21_M_is_deferred_futureEv
_ZNKSt13__future_base15_Deferred_stateINSt6thread8_InvokerISt5tupleIJPFviPK8BoidListPK7BoidMapEiPS4_PS7_EEEEvE21_M_is_deferred_futureEv:
.LFB14996:
	.seh_endprologue
 # C:/msys64/ucrt64/include/c++/13.1.0/future:1710:       virtual bool _M_is_deferred_future() const { return true; }
	movl	$1, %eax	 #,
	ret	
	.seh_endproc
	.section	.text$_ZNSt6thread11_State_implINS_8_InvokerISt5tupleIJPFviPKiPK8BoidListPK7BoidMapEiPiPS5_SA_EEEEE6_M_runEv,"x"
	.linkonce discard
	.align 2
	.p2align 4
	.globl	_ZNSt6thread11_State_implINS_8_InvokerISt5tupleIJPFviPKiPK8BoidListPK7BoidMapEiPiPS5_SA_EEEEE6_M_runEv
	.def	_ZNSt6thread11_State_implINS_8_InvokerISt5tupleIJPFviPKiPK8BoidListPK7BoidMapEiPiPS5_SA_EEEEE6_M_runEv;	.scl	2;	.type	32;	.endef
	.seh_proc	_ZNSt6thread11_State_implINS_8_InvokerISt5tupleIJPFviPKiPK8BoidListPK7BoidMapEiPiPS5_SA_EEEEE6_M_runEv
_ZNSt6thread11_State_implINS_8_InvokerISt5tupleIJPFviPKiPK8BoidListPK7BoidMapEiPiPS5_SA_EEEEE6_M_runEv:
.LFB15001:
	.seh_endprologue
 # C:/msys64/ucrt64/include/c++/13.1.0/bits/invoke.h:61:     { return std::forward<_Fn>(__f)(std::forward<_Args>(__args)...); }
	movl	32(%rcx), %r10d	 # MEM[(int &)this_1(D) + 32], MEM[(int &)this_1(D) + 32]
	movq	24(%rcx), %rdx	 # MEM[(int * &)this_1(D) + 24], MEM[(int * &)this_1(D) + 24]
	movq	40(%rcx), %rax	 # MEM[(void (*<T14c23>) (int, const int *, const struct BoidList *, const struct BoidMap *) &)this_1(D) + 40], MEM[(void (*<T14c23>) (int, const int *, const struct BoidList *, const struct BoidMap *) &)this_1(D) + 40]
	movq	8(%rcx), %r9	 # MEM[(const struct BoidMap * &)this_1(D) + 8],
	movq	16(%rcx), %r8	 # MEM[(struct BoidList * &)this_1(D) + 16],
	movl	%r10d, %ecx	 # MEM[(int &)this_1(D) + 32],
 # C:/msys64/ucrt64/include/c++/13.1.0/bits/std_thread.h:244: 	_M_run() { _M_func(); }
 # C:/msys64/ucrt64/include/c++/13.1.0/bits/invoke.h:61:     { return std::forward<_Fn>(__f)(std::forward<_Args>(__args)...); }
	rex.W jmp	*%rax	 # MEM[(void (*<T14c23>) (int, const int *, const struct BoidList *, const struct BoidMap *) &)this_1(D) + 40]
	.seh_endproc
	.section	.text$_ZNSt6thread11_State_implINS_8_InvokerISt5tupleIJPFvP10TaskMasterhES4_iEEEEE6_M_runEv,"x"
	.linkonce discard
	.align 2
	.p2align 4
	.globl	_ZNSt6thread11_State_implINS_8_InvokerISt5tupleIJPFvP10TaskMasterhES4_iEEEEE6_M_runEv
	.def	_ZNSt6thread11_State_implINS_8_InvokerISt5tupleIJPFvP10TaskMasterhES4_iEEEEE6_M_runEv;	.scl	2;	.type	32;	.endef
	.seh_proc	_ZNSt6thread11_State_implINS_8_InvokerISt5tupleIJPFvP10TaskMasterhES4_iEEEEE6_M_runEv
_ZNSt6thread11_State_implINS_8_InvokerISt5tupleIJPFvP10TaskMasterhES4_iEEEEE6_M_runEv:
.LFB15002:
	.seh_endprologue
 # C:/msys64/ucrt64/include/c++/13.1.0/bits/invoke.h:61:     { return std::forward<_Fn>(__f)(std::forward<_Args>(__args)...); }
	movq	16(%rcx), %r8	 # MEM[(struct TaskMaster * &)this_1(D) + 16], MEM[(struct TaskMaster * &)this_1(D) + 16]
	movzbl	8(%rcx), %edx	 # MEM[(int &)this_1(D) + 8], MEM[(int &)this_1(D) + 8]
	movq	24(%rcx), %rax	 # MEM[(void (*<T1487d>) (struct TaskMaster *, unsigned char) &)this_1(D) + 24], MEM[(void (*<T1487d>) (struct TaskMaster *, unsigned char) &)this_1(D) + 24]
	movq	%r8, %rcx	 # MEM[(struct TaskMaster * &)this_1(D) + 16],
 # C:/msys64/ucrt64/include/c++/13.1.0/bits/std_thread.h:244: 	_M_run() { _M_func(); }
 # C:/msys64/ucrt64/include/c++/13.1.0/bits/invoke.h:61:     { return std::forward<_Fn>(__f)(std::forward<_Args>(__args)...); }
	rex.W jmp	*%rax	 # MEM[(void (*<T1487d>) (struct TaskMaster *, unsigned char) &)this_1(D) + 24]
	.seh_endproc
	.section	.text$_ZNSt23_Sp_counted_ptr_inplaceINSt13__future_base17_Async_state_implINSt6thread8_InvokerISt5tupleIJPFviPK8BoidListPK7BoidMapEiPS5_PS8_EEEEvEESaIvELN9__gnu_cxx12_Lock_policyE2EED0Ev,"x"
	.linkonce discard
	.align 2
	.p2align 4
	.globl	_ZNSt23_Sp_counted_ptr_inplaceINSt13__future_base17_Async_state_implINSt6thread8_InvokerISt5tupleIJPFviPK8BoidListPK7BoidMapEiPS5_PS8_EEEEvEESaIvELN9__gnu_cxx12_Lock_policyE2EED0Ev
	.def	_ZNSt23_Sp_counted_ptr_inplaceINSt13__future_base17_Async_state_implINSt6thread8_InvokerISt5tupleIJPFviPK8BoidListPK7BoidMapEiPS5_PS8_EEEEvEESaIvELN9__gnu_cxx12_Lock_policyE2EED0Ev;	.scl	2;	.type	32;	.endef
	.seh_proc	_ZNSt23_Sp_counted_ptr_inplaceINSt13__future_base17_Async_state_implINSt6thread8_InvokerISt5tupleIJPFviPK8BoidListPK7BoidMapEiPS5_PS8_EEEEvEESaIvELN9__gnu_cxx12_Lock_policyE2EED0Ev
_ZNSt23_Sp_counted_ptr_inplaceINSt13__future_base17_Async_state_implINSt6thread8_InvokerISt5tupleIJPFviPK8BoidListPK7BoidMapEiPS5_PS8_EEEEvEESaIvELN9__gnu_cxx12_Lock_policyE2EED0Ev:
.LFB14971:
	.seh_endprologue
 # C:/msys64/ucrt64/include/c++/13.1.0/bits/shared_ptr_base.h:608:       ~_Sp_counted_ptr_inplace() noexcept { }
	movl	$120, %edx	 #,
 # C:/msys64/ucrt64/include/c++/13.1.0/bits/shared_ptr_base.h:608:       ~_Sp_counted_ptr_inplace() noexcept { }
 # C:/msys64/ucrt64/include/c++/13.1.0/bits/shared_ptr_base.h:608:       ~_Sp_counted_ptr_inplace() noexcept { }
	jmp	_ZdlPvy	 #
	.seh_endproc
	.section	.text$_ZNSt23_Sp_counted_ptr_inplaceINSt13__future_base15_Deferred_stateINSt6thread8_InvokerISt5tupleIJPFvibPK7BoidMapPK5RulesPK8BoidListEibS7_SA_SD_EEEEvEESaIvELN9__gnu_cxx12_Lock_policyE2EED0Ev,"x"
	.linkonce discard
	.align 2
	.p2align 4
	.globl	_ZNSt23_Sp_counted_ptr_inplaceINSt13__future_base15_Deferred_stateINSt6thread8_InvokerISt5tupleIJPFvibPK7BoidMapPK5RulesPK8BoidListEibS7_SA_SD_EEEEvEESaIvELN9__gnu_cxx12_Lock_policyE2EED0Ev
	.def	_ZNSt23_Sp_counted_ptr_inplaceINSt13__future_base15_Deferred_stateINSt6thread8_InvokerISt5tupleIJPFvibPK7BoidMapPK5RulesPK8BoidListEibS7_SA_SD_EEEEvEESaIvELN9__gnu_cxx12_Lock_policyE2EED0Ev;	.scl	2;	.type	32;	.endef
	.seh_proc	_ZNSt23_Sp_counted_ptr_inplaceINSt13__future_base15_Deferred_stateINSt6thread8_InvokerISt5tupleIJPFvibPK7BoidMapPK5RulesPK8BoidListEibS7_SA_SD_EEEEvEESaIvELN9__gnu_cxx12_Lock_policyE2EED0Ev
_ZNSt23_Sp_counted_ptr_inplaceINSt13__future_base15_Deferred_stateINSt6thread8_InvokerISt5tupleIJPFvibPK7BoidMapPK5RulesPK8BoidListEibS7_SA_SD_EEEEvEESaIvELN9__gnu_cxx12_Lock_policyE2EED0Ev:
.LFB14950:
	.seh_endprologue
 # C:/msys64/ucrt64/include/c++/13.1.0/bits/shared_ptr_base.h:608:       ~_Sp_counted_ptr_inplace() noexcept { }
	movl	$112, %edx	 #,
 # C:/msys64/ucrt64/include/c++/13.1.0/bits/shared_ptr_base.h:608:       ~_Sp_counted_ptr_inplace() noexcept { }
 # C:/msys64/ucrt64/include/c++/13.1.0/bits/shared_ptr_base.h:608:       ~_Sp_counted_ptr_inplace() noexcept { }
	jmp	_ZdlPvy	 #
	.seh_endproc
	.section	.text$_ZNSt23_Sp_counted_ptr_inplaceINSt13__future_base17_Async_state_implINSt6thread8_InvokerISt5tupleIJPFvibPK7BoidMapPK5RulesPK8BoidListEibS7_SA_SD_EEEEvEESaIvELN9__gnu_cxx12_Lock_policyE2EED0Ev,"x"
	.linkonce discard
	.align 2
	.p2align 4
	.globl	_ZNSt23_Sp_counted_ptr_inplaceINSt13__future_base17_Async_state_implINSt6thread8_InvokerISt5tupleIJPFvibPK7BoidMapPK5RulesPK8BoidListEibS7_SA_SD_EEEEvEESaIvELN9__gnu_cxx12_Lock_policyE2EED0Ev
	.def	_ZNSt23_Sp_counted_ptr_inplaceINSt13__future_base17_Async_state_implINSt6thread8_InvokerISt5tupleIJPFvibPK7BoidMapPK5RulesPK8BoidListEibS7_SA_SD_EEEEvEESaIvELN9__gnu_cxx12_Lock_policyE2EED0Ev;	.scl	2;	.type	32;	.endef
	.seh_proc	_ZNSt23_Sp_counted_ptr_inplaceINSt13__future_base17_Async_state_implINSt6thread8_InvokerISt5tupleIJPFvibPK7BoidMapPK5RulesPK8BoidListEibS7_SA_SD_EEEEvEESaIvELN9__gnu_cxx12_Lock_policyE2EED0Ev
_ZNSt23_Sp_counted_ptr_inplaceINSt13__future_base17_Async_state_implINSt6thread8_InvokerISt5tupleIJPFvibPK7BoidMapPK5RulesPK8BoidListEibS7_SA_SD_EEEEvEESaIvELN9__gnu_cxx12_Lock_policyE2EED0Ev:
.LFB14957:
	.seh_endprologue
 # C:/msys64/ucrt64/include/c++/13.1.0/bits/shared_ptr_base.h:608:       ~_Sp_counted_ptr_inplace() noexcept { }
	movl	$128, %edx	 #,
 # C:/msys64/ucrt64/include/c++/13.1.0/bits/shared_ptr_base.h:608:       ~_Sp_counted_ptr_inplace() noexcept { }
 # C:/msys64/ucrt64/include/c++/13.1.0/bits/shared_ptr_base.h:608:       ~_Sp_counted_ptr_inplace() noexcept { }
	jmp	_ZdlPvy	 #
	.seh_endproc
	.section	.text$_ZNSt23_Sp_counted_ptr_inplaceINSt13__future_base15_Deferred_stateINSt6thread8_InvokerISt5tupleIJPFviPK8BoidListPK7BoidMapEiPS5_PS8_EEEEvEESaIvELN9__gnu_cxx12_Lock_policyE2EED0Ev,"x"
	.linkonce discard
	.align 2
	.p2align 4
	.globl	_ZNSt23_Sp_counted_ptr_inplaceINSt13__future_base15_Deferred_stateINSt6thread8_InvokerISt5tupleIJPFviPK8BoidListPK7BoidMapEiPS5_PS8_EEEEvEESaIvELN9__gnu_cxx12_Lock_policyE2EED0Ev
	.def	_ZNSt23_Sp_counted_ptr_inplaceINSt13__future_base15_Deferred_stateINSt6thread8_InvokerISt5tupleIJPFviPK8BoidListPK7BoidMapEiPS5_PS8_EEEEvEESaIvELN9__gnu_cxx12_Lock_policyE2EED0Ev;	.scl	2;	.type	32;	.endef
	.seh_proc	_ZNSt23_Sp_counted_ptr_inplaceINSt13__future_base15_Deferred_stateINSt6thread8_InvokerISt5tupleIJPFviPK8BoidListPK7BoidMapEiPS5_PS8_EEEEvEESaIvELN9__gnu_cxx12_Lock_policyE2EED0Ev
_ZNSt23_Sp_counted_ptr_inplaceINSt13__future_base15_Deferred_stateINSt6thread8_InvokerISt5tupleIJPFviPK8BoidListPK7BoidMapEiPS5_PS8_EEEEvEESaIvELN9__gnu_cxx12_Lock_policyE2EED0Ev:
.LFB14964:
	.seh_endprologue
 # C:/msys64/ucrt64/include/c++/13.1.0/bits/shared_ptr_base.h:608:       ~_Sp_counted_ptr_inplace() noexcept { }
	movl	$104, %edx	 #,
 # C:/msys64/ucrt64/include/c++/13.1.0/bits/shared_ptr_base.h:608:       ~_Sp_counted_ptr_inplace() noexcept { }
 # C:/msys64/ucrt64/include/c++/13.1.0/bits/shared_ptr_base.h:608:       ~_Sp_counted_ptr_inplace() noexcept { }
	jmp	_ZdlPvy	 #
	.seh_endproc
	.section	.text$_ZNSt6thread11_State_implINS_8_InvokerISt5tupleIJPFviPKiPK8BoidListPK7BoidMapEiPiPS5_SA_EEEEED1Ev,"x"
	.linkonce discard
	.align 2
	.p2align 4
	.globl	_ZNSt6thread11_State_implINS_8_InvokerISt5tupleIJPFviPKiPK8BoidListPK7BoidMapEiPiPS5_SA_EEEEED1Ev
	.def	_ZNSt6thread11_State_implINS_8_InvokerISt5tupleIJPFviPKiPK8BoidListPK7BoidMapEiPiPS5_SA_EEEEED1Ev;	.scl	2;	.type	32;	.endef
	.seh_proc	_ZNSt6thread11_State_implINS_8_InvokerISt5tupleIJPFviPKiPK8BoidListPK7BoidMapEiPiPS5_SA_EEEEED1Ev
_ZNSt6thread11_State_implINS_8_InvokerISt5tupleIJPFviPKiPK8BoidListPK7BoidMapEiPiPS5_SA_EEEEED1Ev:
.LFB14937:
	.seh_endprologue
 # C:/msys64/ucrt64/include/c++/13.1.0/bits/std_thread.h:234:       struct _State_impl : public _State
	leaq	16+_ZTVNSt6thread11_State_implINS_8_InvokerISt5tupleIJPFviPKiPK8BoidListPK7BoidMapEiPiPS5_SA_EEEEEE(%rip), %rax	 #, tmp87
	movq	%rax, (%rcx)	 # tmp87, this_3(D)->D.186063._vptr._State
	jmp	_ZNSt6thread6_StateD2Ev	 #
	.seh_endproc
	.section	.text$_ZNSt6thread11_State_implINS_8_InvokerISt5tupleIJPFviPKiPK8BoidListPK7BoidMapEiPiPS5_SA_EEEEED0Ev,"x"
	.linkonce discard
	.align 2
	.p2align 4
	.globl	_ZNSt6thread11_State_implINS_8_InvokerISt5tupleIJPFviPKiPK8BoidListPK7BoidMapEiPiPS5_SA_EEEEED0Ev
	.def	_ZNSt6thread11_State_implINS_8_InvokerISt5tupleIJPFviPKiPK8BoidListPK7BoidMapEiPiPS5_SA_EEEEED0Ev;	.scl	2;	.type	32;	.endef
	.seh_proc	_ZNSt6thread11_State_implINS_8_InvokerISt5tupleIJPFviPKiPK8BoidListPK7BoidMapEiPiPS5_SA_EEEEED0Ev
_ZNSt6thread11_State_implINS_8_InvokerISt5tupleIJPFviPKiPK8BoidListPK7BoidMapEiPiPS5_SA_EEEEED0Ev:
.LFB14938:
	pushq	%rbx	 #
	.seh_pushreg	%rbx
	subq	$32, %rsp	 #,
	.seh_stackalloc	32
	.seh_endprologue
 # C:/msys64/ucrt64/include/c++/13.1.0/bits/std_thread.h:234:       struct _State_impl : public _State
	leaq	16+_ZTVNSt6thread11_State_implINS_8_InvokerISt5tupleIJPFviPKiPK8BoidListPK7BoidMapEiPiPS5_SA_EEEEEE(%rip), %rax	 #, tmp87
	movq	%rax, (%rcx)	 # tmp87, this_2(D)->D.186063._vptr._State
	movq	%rcx, %rbx	 # tmp85, this
	call	_ZNSt6thread6_StateD2Ev	 #
 # C:/msys64/ucrt64/include/c++/13.1.0/bits/std_thread.h:234:       struct _State_impl : public _State
	movl	$48, %edx	 #,
	movq	%rbx, %rcx	 # this,
 # C:/msys64/ucrt64/include/c++/13.1.0/bits/std_thread.h:234:       struct _State_impl : public _State
	addq	$32, %rsp	 #,
	popq	%rbx	 #
 # C:/msys64/ucrt64/include/c++/13.1.0/bits/std_thread.h:234:       struct _State_impl : public _State
	jmp	_ZdlPvy	 #
	.seh_endproc
	.section	.text$_ZNSt6thread11_State_implINS_8_InvokerISt5tupleIJMNSt13__future_base17_Async_state_implINS1_IS2_IJPFvibPK7BoidMapPK5RulesPK8BoidListEibS7_SA_SD_EEEEvEEFvvEPSI_EEEEED1Ev,"x"
	.linkonce discard
	.align 2
	.p2align 4
	.globl	_ZNSt6thread11_State_implINS_8_InvokerISt5tupleIJMNSt13__future_base17_Async_state_implINS1_IS2_IJPFvibPK7BoidMapPK5RulesPK8BoidListEibS7_SA_SD_EEEEvEEFvvEPSI_EEEEED1Ev
	.def	_ZNSt6thread11_State_implINS_8_InvokerISt5tupleIJMNSt13__future_base17_Async_state_implINS1_IS2_IJPFvibPK7BoidMapPK5RulesPK8BoidListEibS7_SA_SD_EEEEvEEFvvEPSI_EEEEED1Ev;	.scl	2;	.type	32;	.endef
	.seh_proc	_ZNSt6thread11_State_implINS_8_InvokerISt5tupleIJMNSt13__future_base17_Async_state_implINS1_IS2_IJPFvibPK7BoidMapPK5RulesPK8BoidListEibS7_SA_SD_EEEEvEEFvvEPSI_EEEEED1Ev
_ZNSt6thread11_State_implINS_8_InvokerISt5tupleIJMNSt13__future_base17_Async_state_implINS1_IS2_IJPFvibPK7BoidMapPK5RulesPK8BoidListEibS7_SA_SD_EEEEvEEFvvEPSI_EEEEED1Ev:
.LFB14921:
	.seh_endprologue
 # C:/msys64/ucrt64/include/c++/13.1.0/bits/std_thread.h:234:       struct _State_impl : public _State
	leaq	16+_ZTVNSt6thread11_State_implINS_8_InvokerISt5tupleIJMNSt13__future_base17_Async_state_implINS1_IS2_IJPFvibPK7BoidMapPK5RulesPK8BoidListEibS7_SA_SD_EEEEvEEFvvEPSI_EEEEEE(%rip), %rax	 #, tmp87
	movq	%rax, (%rcx)	 # tmp87, this_3(D)->D.219460._vptr._State
	jmp	_ZNSt6thread6_StateD2Ev	 #
	.seh_endproc
	.section	.text$_ZNSt6thread11_State_implINS_8_InvokerISt5tupleIJMNSt13__future_base17_Async_state_implINS1_IS2_IJPFvibPK7BoidMapPK5RulesPK8BoidListEibS7_SA_SD_EEEEvEEFvvEPSI_EEEEED0Ev,"x"
	.linkonce discard
	.align 2
	.p2align 4
	.globl	_ZNSt6thread11_State_implINS_8_InvokerISt5tupleIJMNSt13__future_base17_Async_state_implINS1_IS2_IJPFvibPK7BoidMapPK5RulesPK8BoidListEibS7_SA_SD_EEEEvEEFvvEPSI_EEEEED0Ev
	.def	_ZNSt6thread11_State_implINS_8_InvokerISt5tupleIJMNSt13__future_base17_Async_state_implINS1_IS2_IJPFvibPK7BoidMapPK5RulesPK8BoidListEibS7_SA_SD_EEEEvEEFvvEPSI_EEEEED0Ev;	.scl	2;	.type	32;	.endef
	.seh_proc	_ZNSt6thread11_State_implINS_8_InvokerISt5tupleIJMNSt13__future_base17_Async_state_implINS1_IS2_IJPFvibPK7BoidMapPK5RulesPK8BoidListEibS7_SA_SD_EEEEvEEFvvEPSI_EEEEED0Ev
_ZNSt6thread11_State_implINS_8_InvokerISt5tupleIJMNSt13__future_base17_Async_state_implINS1_IS2_IJPFvibPK7BoidMapPK5RulesPK8BoidListEibS7_SA_SD_EEEEvEEFvvEPSI_EEEEED0Ev:
.LFB14922:
	pushq	%rbx	 #
	.seh_pushreg	%rbx
	subq	$32, %rsp	 #,
	.seh_stackalloc	32
	.seh_endprologue
 # C:/msys64/ucrt64/include/c++/13.1.0/bits/std_thread.h:234:       struct _State_impl : public _State
	leaq	16+_ZTVNSt6thread11_State_implINS_8_InvokerISt5tupleIJMNSt13__future_base17_Async_state_implINS1_IS2_IJPFvibPK7BoidMapPK5RulesPK8BoidListEibS7_SA_SD_EEEEvEEFvvEPSI_EEEEEE(%rip), %rax	 #, tmp87
	movq	%rax, (%rcx)	 # tmp87, this_2(D)->D.219460._vptr._State
	movq	%rcx, %rbx	 # tmp85, this
	call	_ZNSt6thread6_StateD2Ev	 #
 # C:/msys64/ucrt64/include/c++/13.1.0/bits/std_thread.h:234:       struct _State_impl : public _State
	movl	$32, %edx	 #,
	movq	%rbx, %rcx	 # this,
 # C:/msys64/ucrt64/include/c++/13.1.0/bits/std_thread.h:234:       struct _State_impl : public _State
	addq	$32, %rsp	 #,
	popq	%rbx	 #
 # C:/msys64/ucrt64/include/c++/13.1.0/bits/std_thread.h:234:       struct _State_impl : public _State
	jmp	_ZdlPvy	 #
	.seh_endproc
	.section	.text$_ZNSt6thread11_State_implINS_8_InvokerISt5tupleIJMNSt13__future_base17_Async_state_implINS1_IS2_IJPFviPK8BoidListPK7BoidMapEiPS5_PS8_EEEEvEEFvvEPSH_EEEEED1Ev,"x"
	.linkonce discard
	.align 2
	.p2align 4
	.globl	_ZNSt6thread11_State_implINS_8_InvokerISt5tupleIJMNSt13__future_base17_Async_state_implINS1_IS2_IJPFviPK8BoidListPK7BoidMapEiPS5_PS8_EEEEvEEFvvEPSH_EEEEED1Ev
	.def	_ZNSt6thread11_State_implINS_8_InvokerISt5tupleIJMNSt13__future_base17_Async_state_implINS1_IS2_IJPFviPK8BoidListPK7BoidMapEiPS5_PS8_EEEEvEEFvvEPSH_EEEEED1Ev;	.scl	2;	.type	32;	.endef
	.seh_proc	_ZNSt6thread11_State_implINS_8_InvokerISt5tupleIJMNSt13__future_base17_Async_state_implINS1_IS2_IJPFviPK8BoidListPK7BoidMapEiPS5_PS8_EEEEvEEFvvEPSH_EEEEED1Ev
_ZNSt6thread11_State_implINS_8_InvokerISt5tupleIJMNSt13__future_base17_Async_state_implINS1_IS2_IJPFviPK8BoidListPK7BoidMapEiPS5_PS8_EEEEvEEFvvEPSH_EEEEED1Ev:
.LFB14925:
	.seh_endprologue
 # C:/msys64/ucrt64/include/c++/13.1.0/bits/std_thread.h:234:       struct _State_impl : public _State
	leaq	16+_ZTVNSt6thread11_State_implINS_8_InvokerISt5tupleIJMNSt13__future_base17_Async_state_implINS1_IS2_IJPFviPK8BoidListPK7BoidMapEiPS5_PS8_EEEEvEEFvvEPSH_EEEEEE(%rip), %rax	 #, tmp87
	movq	%rax, (%rcx)	 # tmp87, this_3(D)->D.216239._vptr._State
	jmp	_ZNSt6thread6_StateD2Ev	 #
	.seh_endproc
	.section	.text$_ZNSt6thread11_State_implINS_8_InvokerISt5tupleIJMNSt13__future_base17_Async_state_implINS1_IS2_IJPFviPK8BoidListPK7BoidMapEiPS5_PS8_EEEEvEEFvvEPSH_EEEEED0Ev,"x"
	.linkonce discard
	.align 2
	.p2align 4
	.globl	_ZNSt6thread11_State_implINS_8_InvokerISt5tupleIJMNSt13__future_base17_Async_state_implINS1_IS2_IJPFviPK8BoidListPK7BoidMapEiPS5_PS8_EEEEvEEFvvEPSH_EEEEED0Ev
	.def	_ZNSt6thread11_State_implINS_8_InvokerISt5tupleIJMNSt13__future_base17_Async_state_implINS1_IS2_IJPFviPK8BoidListPK7BoidMapEiPS5_PS8_EEEEvEEFvvEPSH_EEEEED0Ev;	.scl	2;	.type	32;	.endef
	.seh_proc	_ZNSt6thread11_State_implINS_8_InvokerISt5tupleIJMNSt13__future_base17_Async_state_implINS1_IS2_IJPFviPK8BoidListPK7BoidMapEiPS5_PS8_EEEEvEEFvvEPSH_EEEEED0Ev
_ZNSt6thread11_State_implINS_8_InvokerISt5tupleIJMNSt13__future_base17_Async_state_implINS1_IS2_IJPFviPK8BoidListPK7BoidMapEiPS5_PS8_EEEEvEEFvvEPSH_EEEEED0Ev:
.LFB14926:
	pushq	%rbx	 #
	.seh_pushreg	%rbx
	subq	$32, %rsp	 #,
	.seh_stackalloc	32
	.seh_endprologue
 # C:/msys64/ucrt64/include/c++/13.1.0/bits/std_thread.h:234:       struct _State_impl : public _State
	leaq	16+_ZTVNSt6thread11_State_implINS_8_InvokerISt5tupleIJMNSt13__future_base17_Async_state_implINS1_IS2_IJPFviPK8BoidListPK7BoidMapEiPS5_PS8_EEEEvEEFvvEPSH_EEEEEE(%rip), %rax	 #, tmp87
	movq	%rax, (%rcx)	 # tmp87, this_2(D)->D.216239._vptr._State
	movq	%rcx, %rbx	 # tmp85, this
	call	_ZNSt6thread6_StateD2Ev	 #
 # C:/msys64/ucrt64/include/c++/13.1.0/bits/std_thread.h:234:       struct _State_impl : public _State
	movl	$32, %edx	 #,
	movq	%rbx, %rcx	 # this,
 # C:/msys64/ucrt64/include/c++/13.1.0/bits/std_thread.h:234:       struct _State_impl : public _State
	addq	$32, %rsp	 #,
	popq	%rbx	 #
 # C:/msys64/ucrt64/include/c++/13.1.0/bits/std_thread.h:234:       struct _State_impl : public _State
	jmp	_ZdlPvy	 #
	.seh_endproc
	.section	.text$_ZNSt6thread11_State_implINS_8_InvokerISt5tupleIJPFvP10TaskMasterhES4_iEEEEED1Ev,"x"
	.linkonce discard
	.align 2
	.p2align 4
	.globl	_ZNSt6thread11_State_implINS_8_InvokerISt5tupleIJPFvP10TaskMasterhES4_iEEEEED1Ev
	.def	_ZNSt6thread11_State_implINS_8_InvokerISt5tupleIJPFvP10TaskMasterhES4_iEEEEED1Ev;	.scl	2;	.type	32;	.endef
	.seh_proc	_ZNSt6thread11_State_implINS_8_InvokerISt5tupleIJPFvP10TaskMasterhES4_iEEEEED1Ev
_ZNSt6thread11_State_implINS_8_InvokerISt5tupleIJPFvP10TaskMasterhES4_iEEEEED1Ev:
.LFB14941:
	.seh_endprologue
 # C:/msys64/ucrt64/include/c++/13.1.0/bits/std_thread.h:234:       struct _State_impl : public _State
	leaq	16+_ZTVNSt6thread11_State_implINS_8_InvokerISt5tupleIJPFvP10TaskMasterhES4_iEEEEEE(%rip), %rax	 #, tmp87
	movq	%rax, (%rcx)	 # tmp87, this_3(D)->D.178931._vptr._State
	jmp	_ZNSt6thread6_StateD2Ev	 #
	.seh_endproc
	.section	.text$_ZNSt6thread11_State_implINS_8_InvokerISt5tupleIJPFvP10TaskMasterhES4_iEEEEED0Ev,"x"
	.linkonce discard
	.align 2
	.p2align 4
	.globl	_ZNSt6thread11_State_implINS_8_InvokerISt5tupleIJPFvP10TaskMasterhES4_iEEEEED0Ev
	.def	_ZNSt6thread11_State_implINS_8_InvokerISt5tupleIJPFvP10TaskMasterhES4_iEEEEED0Ev;	.scl	2;	.type	32;	.endef
	.seh_proc	_ZNSt6thread11_State_implINS_8_InvokerISt5tupleIJPFvP10TaskMasterhES4_iEEEEED0Ev
_ZNSt6thread11_State_implINS_8_InvokerISt5tupleIJPFvP10TaskMasterhES4_iEEEEED0Ev:
.LFB14942:
	pushq	%rbx	 #
	.seh_pushreg	%rbx
	subq	$32, %rsp	 #,
	.seh_stackalloc	32
	.seh_endprologue
 # C:/msys64/ucrt64/include/c++/13.1.0/bits/std_thread.h:234:       struct _State_impl : public _State
	leaq	16+_ZTVNSt6thread11_State_implINS_8_InvokerISt5tupleIJPFvP10TaskMasterhES4_iEEEEEE(%rip), %rax	 #, tmp87
	movq	%rax, (%rcx)	 # tmp87, this_2(D)->D.178931._vptr._State
	movq	%rcx, %rbx	 # tmp85, this
	call	_ZNSt6thread6_StateD2Ev	 #
 # C:/msys64/ucrt64/include/c++/13.1.0/bits/std_thread.h:234:       struct _State_impl : public _State
	movl	$32, %edx	 #,
	movq	%rbx, %rcx	 # this,
 # C:/msys64/ucrt64/include/c++/13.1.0/bits/std_thread.h:234:       struct _State_impl : public _State
	addq	$32, %rsp	 #,
	popq	%rbx	 #
 # C:/msys64/ucrt64/include/c++/13.1.0/bits/std_thread.h:234:       struct _State_impl : public _State
	jmp	_ZdlPvy	 #
	.seh_endproc
	.section	.text$_ZNSt23_Sp_counted_ptr_inplaceINSt13__future_base17_Async_state_implINSt6thread8_InvokerISt5tupleIJPFviPK8BoidListPK7BoidMapEiPS5_PS8_EEEEvEESaIvELN9__gnu_cxx12_Lock_policyE2EE14_M_get_deleterERKSt9type_info,"x"
	.linkonce discard
	.align 2
	.p2align 4
	.globl	_ZNSt23_Sp_counted_ptr_inplaceINSt13__future_base17_Async_state_implINSt6thread8_InvokerISt5tupleIJPFviPK8BoidListPK7BoidMapEiPS5_PS8_EEEEvEESaIvELN9__gnu_cxx12_Lock_policyE2EE14_M_get_deleterERKSt9type_info
	.def	_ZNSt23_Sp_counted_ptr_inplaceINSt13__future_base17_Async_state_implINSt6thread8_InvokerISt5tupleIJPFviPK8BoidListPK7BoidMapEiPS5_PS8_EEEEvEESaIvELN9__gnu_cxx12_Lock_policyE2EE14_M_get_deleterERKSt9type_info;	.scl	2;	.type	32;	.endef
	.seh_proc	_ZNSt23_Sp_counted_ptr_inplaceINSt13__future_base17_Async_state_implINSt6thread8_InvokerISt5tupleIJPFviPK8BoidListPK7BoidMapEiPS5_PS8_EEEEvEESaIvELN9__gnu_cxx12_Lock_policyE2EE14_M_get_deleterERKSt9type_info
_ZNSt23_Sp_counted_ptr_inplaceINSt13__future_base17_Async_state_implINSt6thread8_InvokerISt5tupleIJPFviPK8BoidListPK7BoidMapEiPS5_PS8_EEEEvEESaIvELN9__gnu_cxx12_Lock_policyE2EE14_M_get_deleterERKSt9type_info:
.LFB14974:
	pushq	%rbx	 #
	.seh_pushreg	%rbx
	subq	$32, %rsp	 #,
	.seh_stackalloc	32
	.seh_endprologue
 # C:/msys64/ucrt64/include/c++/13.1.0/bits/shared_ptr_base.h:631:       _M_get_deleter(const std::type_info& __ti) noexcept override
	movq	%rdx, %rax	 # tmp91, __ti
 # C:/msys64/ucrt64/include/c++/13.1.0/bits/shared_ptr_base.h:639: 	    ||
	leaq	_ZZNSt19_Sp_make_shared_tag5_S_tiEvE5__tag(%rip), %rdx	 #, tmp86
 # C:/msys64/ucrt64/include/c++/13.1.0/ext/aligned_buffer.h:106:         return static_cast<void*>(&_M_storage);
	leaq	16(%rcx), %rbx	 #, <retval>
 # C:/msys64/ucrt64/include/c++/13.1.0/bits/shared_ptr_base.h:639: 	    ||
	cmpq	%rdx, %rax	 # tmp86, __ti
	je	.L38	 #,
 # C:/msys64/ucrt64/include/c++/13.1.0/bits/shared_ptr_base.h:641: 	    __ti == typeid(_Sp_make_shared_tag)
	leaq	_ZTISt19_Sp_make_shared_tag(%rip), %rdx	 #, tmp87
	movq	%rax, %rcx	 # __ti,
	call	_ZNKSt9type_infoeqERKS_	 #
 # C:/msys64/ucrt64/include/c++/13.1.0/bits/shared_ptr_base.h:647: 	return nullptr;
	testb	%al, %al	 # tmp92
	movl	$0, %eax	 #, tmp89
	cmove	%rax, %rbx	 # <retval>,, tmp89, <retval>
.L38:
 # C:/msys64/ucrt64/include/c++/13.1.0/bits/shared_ptr_base.h:648:       }
	movq	%rbx, %rax	 # <retval>,
	addq	$32, %rsp	 #,
	popq	%rbx	 #
	ret	
	.seh_endproc
	.section	.text$_ZNSt23_Sp_counted_ptr_inplaceINSt13__future_base15_Deferred_stateINSt6thread8_InvokerISt5tupleIJPFviPK8BoidListPK7BoidMapEiPS5_PS8_EEEEvEESaIvELN9__gnu_cxx12_Lock_policyE2EE14_M_get_deleterERKSt9type_info,"x"
	.linkonce discard
	.align 2
	.p2align 4
	.globl	_ZNSt23_Sp_counted_ptr_inplaceINSt13__future_base15_Deferred_stateINSt6thread8_InvokerISt5tupleIJPFviPK8BoidListPK7BoidMapEiPS5_PS8_EEEEvEESaIvELN9__gnu_cxx12_Lock_policyE2EE14_M_get_deleterERKSt9type_info
	.def	_ZNSt23_Sp_counted_ptr_inplaceINSt13__future_base15_Deferred_stateINSt6thread8_InvokerISt5tupleIJPFviPK8BoidListPK7BoidMapEiPS5_PS8_EEEEvEESaIvELN9__gnu_cxx12_Lock_policyE2EE14_M_get_deleterERKSt9type_info;	.scl	2;	.type	32;	.endef
	.seh_proc	_ZNSt23_Sp_counted_ptr_inplaceINSt13__future_base15_Deferred_stateINSt6thread8_InvokerISt5tupleIJPFviPK8BoidListPK7BoidMapEiPS5_PS8_EEEEvEESaIvELN9__gnu_cxx12_Lock_policyE2EE14_M_get_deleterERKSt9type_info
_ZNSt23_Sp_counted_ptr_inplaceINSt13__future_base15_Deferred_stateINSt6thread8_InvokerISt5tupleIJPFviPK8BoidListPK7BoidMapEiPS5_PS8_EEEEvEESaIvELN9__gnu_cxx12_Lock_policyE2EE14_M_get_deleterERKSt9type_info:
.LFB14967:
	pushq	%rbx	 #
	.seh_pushreg	%rbx
	subq	$32, %rsp	 #,
	.seh_stackalloc	32
	.seh_endprologue
 # C:/msys64/ucrt64/include/c++/13.1.0/bits/shared_ptr_base.h:631:       _M_get_deleter(const std::type_info& __ti) noexcept override
	movq	%rdx, %rax	 # tmp91, __ti
 # C:/msys64/ucrt64/include/c++/13.1.0/bits/shared_ptr_base.h:639: 	    ||
	leaq	_ZZNSt19_Sp_make_shared_tag5_S_tiEvE5__tag(%rip), %rdx	 #, tmp86
 # C:/msys64/ucrt64/include/c++/13.1.0/ext/aligned_buffer.h:106:         return static_cast<void*>(&_M_storage);
	leaq	16(%rcx), %rbx	 #, <retval>
 # C:/msys64/ucrt64/include/c++/13.1.0/bits/shared_ptr_base.h:639: 	    ||
	cmpq	%rdx, %rax	 # tmp86, __ti
	je	.L42	 #,
 # C:/msys64/ucrt64/include/c++/13.1.0/bits/shared_ptr_base.h:641: 	    __ti == typeid(_Sp_make_shared_tag)
	leaq	_ZTISt19_Sp_make_shared_tag(%rip), %rdx	 #, tmp87
	movq	%rax, %rcx	 # __ti,
	call	_ZNKSt9type_infoeqERKS_	 #
 # C:/msys64/ucrt64/include/c++/13.1.0/bits/shared_ptr_base.h:647: 	return nullptr;
	testb	%al, %al	 # tmp92
	movl	$0, %eax	 #, tmp89
	cmove	%rax, %rbx	 # <retval>,, tmp89, <retval>
.L42:
 # C:/msys64/ucrt64/include/c++/13.1.0/bits/shared_ptr_base.h:648:       }
	movq	%rbx, %rax	 # <retval>,
	addq	$32, %rsp	 #,
	popq	%rbx	 #
	ret	
	.seh_endproc
	.section	.text$_ZNSt23_Sp_counted_ptr_inplaceINSt13__future_base17_Async_state_implINSt6thread8_InvokerISt5tupleIJPFvibPK7BoidMapPK5RulesPK8BoidListEibS7_SA_SD_EEEEvEESaIvELN9__gnu_cxx12_Lock_policyE2EE14_M_get_deleterERKSt9type_info,"x"
	.linkonce discard
	.align 2
	.p2align 4
	.globl	_ZNSt23_Sp_counted_ptr_inplaceINSt13__future_base17_Async_state_implINSt6thread8_InvokerISt5tupleIJPFvibPK7BoidMapPK5RulesPK8BoidListEibS7_SA_SD_EEEEvEESaIvELN9__gnu_cxx12_Lock_policyE2EE14_M_get_deleterERKSt9type_info
	.def	_ZNSt23_Sp_counted_ptr_inplaceINSt13__future_base17_Async_state_implINSt6thread8_InvokerISt5tupleIJPFvibPK7BoidMapPK5RulesPK8BoidListEibS7_SA_SD_EEEEvEESaIvELN9__gnu_cxx12_Lock_policyE2EE14_M_get_deleterERKSt9type_info;	.scl	2;	.type	32;	.endef
	.seh_proc	_ZNSt23_Sp_counted_ptr_inplaceINSt13__future_base17_Async_state_implINSt6thread8_InvokerISt5tupleIJPFvibPK7BoidMapPK5RulesPK8BoidListEibS7_SA_SD_EEEEvEESaIvELN9__gnu_cxx12_Lock_policyE2EE14_M_get_deleterERKSt9type_info
_ZNSt23_Sp_counted_ptr_inplaceINSt13__future_base17_Async_state_implINSt6thread8_InvokerISt5tupleIJPFvibPK7BoidMapPK5RulesPK8BoidListEibS7_SA_SD_EEEEvEESaIvELN9__gnu_cxx12_Lock_policyE2EE14_M_get_deleterERKSt9type_info:
.LFB14960:
	pushq	%rbx	 #
	.seh_pushreg	%rbx
	subq	$32, %rsp	 #,
	.seh_stackalloc	32
	.seh_endprologue
 # C:/msys64/ucrt64/include/c++/13.1.0/bits/shared_ptr_base.h:631:       _M_get_deleter(const std::type_info& __ti) noexcept override
	movq	%rdx, %rax	 # tmp91, __ti
 # C:/msys64/ucrt64/include/c++/13.1.0/bits/shared_ptr_base.h:639: 	    ||
	leaq	_ZZNSt19_Sp_make_shared_tag5_S_tiEvE5__tag(%rip), %rdx	 #, tmp86
 # C:/msys64/ucrt64/include/c++/13.1.0/ext/aligned_buffer.h:106:         return static_cast<void*>(&_M_storage);
	leaq	16(%rcx), %rbx	 #, <retval>
 # C:/msys64/ucrt64/include/c++/13.1.0/bits/shared_ptr_base.h:639: 	    ||
	cmpq	%rdx, %rax	 # tmp86, __ti
	je	.L46	 #,
 # C:/msys64/ucrt64/include/c++/13.1.0/bits/shared_ptr_base.h:641: 	    __ti == typeid(_Sp_make_shared_tag)
	leaq	_ZTISt19_Sp_make_shared_tag(%rip), %rdx	 #, tmp87
	movq	%rax, %rcx	 # __ti,
	call	_ZNKSt9type_infoeqERKS_	 #
 # C:/msys64/ucrt64/include/c++/13.1.0/bits/shared_ptr_base.h:647: 	return nullptr;
	testb	%al, %al	 # tmp92
	movl	$0, %eax	 #, tmp89
	cmove	%rax, %rbx	 # <retval>,, tmp89, <retval>
.L46:
 # C:/msys64/ucrt64/include/c++/13.1.0/bits/shared_ptr_base.h:648:       }
	movq	%rbx, %rax	 # <retval>,
	addq	$32, %rsp	 #,
	popq	%rbx	 #
	ret	
	.seh_endproc
	.section	.text$_ZNSt23_Sp_counted_ptr_inplaceINSt13__future_base15_Deferred_stateINSt6thread8_InvokerISt5tupleIJPFvibPK7BoidMapPK5RulesPK8BoidListEibS7_SA_SD_EEEEvEESaIvELN9__gnu_cxx12_Lock_policyE2EE14_M_get_deleterERKSt9type_info,"x"
	.linkonce discard
	.align 2
	.p2align 4
	.globl	_ZNSt23_Sp_counted_ptr_inplaceINSt13__future_base15_Deferred_stateINSt6thread8_InvokerISt5tupleIJPFvibPK7BoidMapPK5RulesPK8BoidListEibS7_SA_SD_EEEEvEESaIvELN9__gnu_cxx12_Lock_policyE2EE14_M_get_deleterERKSt9type_info
	.def	_ZNSt23_Sp_counted_ptr_inplaceINSt13__future_base15_Deferred_stateINSt6thread8_InvokerISt5tupleIJPFvibPK7BoidMapPK5RulesPK8BoidListEibS7_SA_SD_EEEEvEESaIvELN9__gnu_cxx12_Lock_policyE2EE14_M_get_deleterERKSt9type_info;	.scl	2;	.type	32;	.endef
	.seh_proc	_ZNSt23_Sp_counted_ptr_inplaceINSt13__future_base15_Deferred_stateINSt6thread8_InvokerISt5tupleIJPFvibPK7BoidMapPK5RulesPK8BoidListEibS7_SA_SD_EEEEvEESaIvELN9__gnu_cxx12_Lock_policyE2EE14_M_get_deleterERKSt9type_info
_ZNSt23_Sp_counted_ptr_inplaceINSt13__future_base15_Deferred_stateINSt6thread8_InvokerISt5tupleIJPFvibPK7BoidMapPK5RulesPK8BoidListEibS7_SA_SD_EEEEvEESaIvELN9__gnu_cxx12_Lock_policyE2EE14_M_get_deleterERKSt9type_info:
.LFB14953:
	pushq	%rbx	 #
	.seh_pushreg	%rbx
	subq	$32, %rsp	 #,
	.seh_stackalloc	32
	.seh_endprologue
 # C:/msys64/ucrt64/include/c++/13.1.0/bits/shared_ptr_base.h:631:       _M_get_deleter(const std::type_info& __ti) noexcept override
	movq	%rdx, %rax	 # tmp91, __ti
 # C:/msys64/ucrt64/include/c++/13.1.0/bits/shared_ptr_base.h:639: 	    ||
	leaq	_ZZNSt19_Sp_make_shared_tag5_S_tiEvE5__tag(%rip), %rdx	 #, tmp86
 # C:/msys64/ucrt64/include/c++/13.1.0/ext/aligned_buffer.h:106:         return static_cast<void*>(&_M_storage);
	leaq	16(%rcx), %rbx	 #, <retval>
 # C:/msys64/ucrt64/include/c++/13.1.0/bits/shared_ptr_base.h:639: 	    ||
	cmpq	%rdx, %rax	 # tmp86, __ti
	je	.L50	 #,
 # C:/msys64/ucrt64/include/c++/13.1.0/bits/shared_ptr_base.h:641: 	    __ti == typeid(_Sp_make_shared_tag)
	leaq	_ZTISt19_Sp_make_shared_tag(%rip), %rdx	 #, tmp87
	movq	%rax, %rcx	 # __ti,
	call	_ZNKSt9type_infoeqERKS_	 #
 # C:/msys64/ucrt64/include/c++/13.1.0/bits/shared_ptr_base.h:647: 	return nullptr;
	testb	%al, %al	 # tmp92
	movl	$0, %eax	 #, tmp89
	cmove	%rax, %rbx	 # <retval>,, tmp89, <retval>
.L50:
 # C:/msys64/ucrt64/include/c++/13.1.0/bits/shared_ptr_base.h:648:       }
	movq	%rbx, %rax	 # <retval>,
	addq	$32, %rsp	 #,
	popq	%rbx	 #
	ret	
	.seh_endproc
	.section	.text$_ZNSt13__future_base7_ResultIvED1Ev,"x"
	.linkonce discard
	.align 2
	.p2align 4
	.globl	_ZNSt13__future_base7_ResultIvED1Ev
	.def	_ZNSt13__future_base7_ResultIvED1Ev;	.scl	2;	.type	32;	.endef
	.seh_proc	_ZNSt13__future_base7_ResultIvED1Ev
_ZNSt13__future_base7_ResultIvED1Ev:
.LFB11729:
	.seh_endprologue
 # C:/msys64/ucrt64/include/c++/13.1.0/future:667:     struct __future_base::_Result<void> : __future_base::_Result_base
	leaq	16+_ZTVNSt13__future_base7_ResultIvEE(%rip), %rax	 #, tmp87
	movq	%rax, (%rcx)	 # tmp87, this_3(D)->D.147292._vptr._Result_base
	jmp	_ZNSt13__future_base12_Result_baseD2Ev	 #
	.seh_endproc
	.section	.text$_ZNSt13__future_base7_ResultIvED0Ev,"x"
	.linkonce discard
	.align 2
	.p2align 4
	.globl	_ZNSt13__future_base7_ResultIvED0Ev
	.def	_ZNSt13__future_base7_ResultIvED0Ev;	.scl	2;	.type	32;	.endef
	.seh_proc	_ZNSt13__future_base7_ResultIvED0Ev
_ZNSt13__future_base7_ResultIvED0Ev:
.LFB11730:
	pushq	%rbx	 #
	.seh_pushreg	%rbx
	subq	$32, %rsp	 #,
	.seh_stackalloc	32
	.seh_endprologue
 # C:/msys64/ucrt64/include/c++/13.1.0/future:667:     struct __future_base::_Result<void> : __future_base::_Result_base
	leaq	16+_ZTVNSt13__future_base7_ResultIvEE(%rip), %rax	 #, tmp87
	movq	%rax, (%rcx)	 # tmp87, this_2(D)->D.147292._vptr._Result_base
	movq	%rcx, %rbx	 # tmp85, this
	call	_ZNSt13__future_base12_Result_baseD2Ev	 #
 # C:/msys64/ucrt64/include/c++/13.1.0/future:667:     struct __future_base::_Result<void> : __future_base::_Result_base
	movl	$16, %edx	 #,
	movq	%rbx, %rcx	 # this,
 # C:/msys64/ucrt64/include/c++/13.1.0/future:667:     struct __future_base::_Result<void> : __future_base::_Result_base
	addq	$32, %rsp	 #,
	popq	%rbx	 #
 # C:/msys64/ucrt64/include/c++/13.1.0/future:667:     struct __future_base::_Result<void> : __future_base::_Result_base
	jmp	_ZdlPvy	 #
	.seh_endproc
	.section	.text$_ZNSt17_Function_handlerIFSt10unique_ptrINSt13__future_base12_Result_baseENS2_8_DeleterEEvENS1_12_Task_setterIS0_INS1_7_ResultIvEES3_ENSt6thread8_InvokerISt5tupleIJPFviPK8BoidListPK7BoidMapEiPSD_PSG_EEEEvEEE9_M_invokeERKSt9_Any_data,"x"
	.linkonce discard
	.p2align 4
	.globl	_ZNSt17_Function_handlerIFSt10unique_ptrINSt13__future_base12_Result_baseENS2_8_DeleterEEvENS1_12_Task_setterIS0_INS1_7_ResultIvEES3_ENSt6thread8_InvokerISt5tupleIJPFviPK8BoidListPK7BoidMapEiPSD_PSG_EEEEvEEE9_M_invokeERKSt9_Any_data
	.def	_ZNSt17_Function_handlerIFSt10unique_ptrINSt13__future_base12_Result_baseENS2_8_DeleterEEvENS1_12_Task_setterIS0_INS1_7_ResultIvEES3_ENSt6thread8_InvokerISt5tupleIJPFviPK8BoidListPK7BoidMapEiPSD_PSG_EEEEvEEE9_M_invokeERKSt9_Any_data;	.scl	2;	.type	32;	.endef
	.seh_proc	_ZNSt17_Function_handlerIFSt10unique_ptrINSt13__future_base12_Result_baseENS2_8_DeleterEEvENS1_12_Task_setterIS0_INS1_7_ResultIvEES3_ENSt6thread8_InvokerISt5tupleIJPFviPK8BoidListPK7BoidMapEiPSD_PSG_EEEEvEEE9_M_invokeERKSt9_Any_data
_ZNSt17_Function_handlerIFSt10unique_ptrINSt13__future_base12_Result_baseENS2_8_DeleterEEvENS1_12_Task_setterIS0_INS1_7_ResultIvEES3_ENSt6thread8_InvokerISt5tupleIJPFviPK8BoidListPK7BoidMapEiPSD_PSG_EEEEvEEE9_M_invokeERKSt9_Any_data:
.LFB14718:
	pushq	%rdi	 #
	.seh_pushreg	%rdi
	pushq	%rsi	 #
	.seh_pushreg	%rsi
	pushq	%rbx	 #
	.seh_pushreg	%rbx
	subq	$48, %rsp	 #,
	.seh_stackalloc	48
	.seh_endprologue
 # C:/msys64/ucrt64/include/c++/13.1.0/future:1432: 	    (*_M_fn)();
	movq	8(%rdx), %rax	 # MEM[(const struct _Task_setter *)__functor_2(D)]._M_fn, _11
 # C:/msys64/ucrt64/include/c++/13.1.0/bits/invoke.h:61:     { return std::forward<_Fn>(__f)(std::forward<_Args>(__args)...); }
	movq	(%rax), %r8	 # MEM[(struct BoidMap * &)_11],
 # C:/msys64/ucrt64/include/c++/13.1.0/bits/std_function.h:288:       _M_invoke(const _Any_data& __functor, _ArgTypes&&... __args)
	movq	%rcx, %rsi	 # tmp112, <retval>
	movq	%rdx, %rbx	 # tmp113, __functor
 # C:/msys64/ucrt64/include/c++/13.1.0/bits/invoke.h:61:     { return std::forward<_Fn>(__f)(std::forward<_Args>(__args)...); }
	movl	16(%rax), %ecx	 # MEM[(int &)_11 + 16], MEM[(int &)_11 + 16]
	movq	8(%rax), %rdx	 # MEM[(struct BoidList * &)_11 + 8], MEM[(struct BoidList * &)_11 + 8]
.LEHB0:
	call	*24(%rax)	 # MEM[(void (*<T14ef1>) (int, const struct BoidList *, const struct BoidMap *) &)_11 + 24]
.LEHE0:
.L61:
 # C:/msys64/ucrt64/include/c++/13.1.0/future:1442: 	return std::move(*_M_result);
	movq	(%rbx), %rax	 # MEM[(const struct _Task_setter *)__functor_2(D)]._M_result, _16
 # C:/msys64/ucrt64/include/c++/13.1.0/tuple:302:       _Tuple_impl(_Tuple_impl&&) = default;
	movq	(%rax), %rdx	 # MEM[(struct _Tuple_impl &)_16], SR.1395
 # C:/msys64/ucrt64/include/c++/13.1.0/bits/unique_ptr.h:186:       { __u._M_ptr() = nullptr; }
	movq	$0, (%rax)	 #, MEM[(struct _Result * &)_16]
 # C:/msys64/ucrt64/include/c++/13.1.0/bits/std_function.h:292:       }
	movq	%rsi, %rax	 # <retval>,
 # C:/msys64/ucrt64/include/c++/13.1.0/tuple:201: 	: _M_head_impl(std::forward<_UHead>(__h)) { }
	movq	%rdx, (%rsi)	 # SR.1395, MEM[(struct _Head_base *)_3(D)]._M_head_impl
 # C:/msys64/ucrt64/include/c++/13.1.0/bits/std_function.h:292:       }
	addq	$48, %rsp	 #,
	popq	%rbx	 #
	popq	%rsi	 #
	popq	%rdi	 #
	ret	
.L64:
 # C:/msys64/ucrt64/include/c++/13.1.0/future:1434: 	__catch(const __cxxabiv1::__forced_unwind&)
	subq	$1, %rdx	 #, tmp115
	movq	%rax, %rcx	 # tmp114, tmp105
	jne	.L58	 #,
 # C:/msys64/ucrt64/include/c++/13.1.0/future:1434: 	__catch(const __cxxabiv1::__forced_unwind&)
	vzeroupper
	call	__cxa_begin_catch	 #
.LEHB1:
 # C:/msys64/ucrt64/include/c++/13.1.0/future:1436: 	    __throw_exception_again; // will cause broken_promise
	call	__cxa_rethrow	 #
.LEHE1:
.L58:
 # C:/msys64/ucrt64/include/c++/13.1.0/future:1440: 	    (*_M_result)->_M_error = current_exception();
	leaq	40(%rsp), %rdi	 #, tmp111
 # C:/msys64/ucrt64/include/c++/13.1.0/future:1438: 	__catch(...)
	vzeroupper
	call	__cxa_begin_catch	 #
 # C:/msys64/ucrt64/include/c++/13.1.0/future:1440: 	    (*_M_result)->_M_error = current_exception();
	movq	%rdi, %rcx	 # tmp111,
	call	_ZSt17current_exceptionv	 #
 # C:/msys64/ucrt64/include/c++/13.1.0/bits/unique_ptr.h:199:       pointer    _M_ptr() const noexcept { return std::get<0>(_M_t); }
	movq	(%rbx), %rax	 # MEM[(const struct _Task_setter *)__functor_2(D)]._M_result, MEM[(const struct _Task_setter *)__functor_2(D)]._M_result
 # C:/msys64/ucrt64/include/c++/13.1.0/bits/exception_ptr.h:124:       : _M_exception_object(__o._M_exception_object)
	movq	40(%rsp), %rcx	 # D.231673._M_exception_object, _21
 # C:/msys64/ucrt64/include/c++/13.1.0/bits/unique_ptr.h:199:       pointer    _M_ptr() const noexcept { return std::get<0>(_M_t); }
	movq	(%rax), %rdx	 # MEM[(struct _Result * const &)_19], _20
 # C:/msys64/ucrt64/include/c++/13.1.0/bits/exception_ptr.h:125:       { __o._M_exception_object = nullptr; }
	xorl	%eax, %eax	 #
	movq	%rax, 40(%rsp)	 #, D.231673._M_exception_object
 # C:/msys64/ucrt64/include/c++/13.1.0/bits/exception_ptr.h:224:       _M_exception_object = __other._M_exception_object;
	movq	8(%rdx), %rax	 # MEM[(struct exception_ptr &)_20 + 8]._M_exception_object, _22
 # C:/msys64/ucrt64/include/c++/13.1.0/bits/exception_ptr.h:225:       __other._M_exception_object = __tmp;
	movq	%rcx, 8(%rdx)	 # _21, MEM[(struct exception_ptr &)_20 + 8]._M_exception_object
 # C:/msys64/ucrt64/include/c++/13.1.0/bits/exception_ptr.h:224:       _M_exception_object = __other._M_exception_object;
	movq	%rax, 32(%rsp)	 # _22, D.231672._M_exception_object
 # C:/msys64/ucrt64/include/c++/13.1.0/bits/exception_ptr.h:207:       if (_M_exception_object)
	testq	%rax, %rax	 # _22
	je	.L59	 #,
 # C:/msys64/ucrt64/include/c++/13.1.0/bits/exception_ptr.h:208: 	_M_release();
	leaq	32(%rsp), %rcx	 #, tmp108
	call	_ZNSt15__exception_ptr13exception_ptr10_M_releaseEv	 #
.L59:
 # C:/msys64/ucrt64/include/c++/13.1.0/bits/exception_ptr.h:207:       if (_M_exception_object)
	cmpq	$0, 40(%rsp)	 #, D.231673._M_exception_object
	je	.L60	 #,
 # C:/msys64/ucrt64/include/c++/13.1.0/bits/exception_ptr.h:208: 	_M_release();
	movq	%rdi, %rcx	 # tmp111,
	call	_ZNSt15__exception_ptr13exception_ptr10_M_releaseEv	 #
.L60:
.LEHB2:
 # C:/msys64/ucrt64/include/c++/13.1.0/future:1438: 	__catch(...)
	call	__cxa_end_catch	 #
	jmp	.L61	 #
.L63:
 # C:/msys64/ucrt64/include/c++/13.1.0/future:1434: 	__catch(const __cxxabiv1::__forced_unwind&)
	movq	%rax, %rbx	 # tmp116, tmp110
	vzeroupper
	call	__cxa_end_catch	 #
	movq	%rbx, %rcx	 # tmp110,
	call	_Unwind_Resume	 #
	nop	
.LEHE2:
	.def	__gxx_personality_seh0;	.scl	2;	.type	32;	.endef
	.seh_handler	__gxx_personality_seh0, @unwind, @except
	.seh_handlerdata
	.align 4
.LLSDA14718:
	.byte	0xff
	.byte	0x9b
	.uleb128 .LLSDATT14718-.LLSDATTD14718
.LLSDATTD14718:
	.byte	0x1
	.uleb128 .LLSDACSE14718-.LLSDACSB14718
.LLSDACSB14718:
	.uleb128 .LEHB0-.LFB14718
	.uleb128 .LEHE0-.LEHB0
	.uleb128 .L64-.LFB14718
	.uleb128 0x3
	.uleb128 .LEHB1-.LFB14718
	.uleb128 .LEHE1-.LEHB1
	.uleb128 .L63-.LFB14718
	.uleb128 0
	.uleb128 .LEHB2-.LFB14718
	.uleb128 .LEHE2-.LEHB2
	.uleb128 0
	.uleb128 0
.LLSDACSE14718:
	.byte	0x2
	.byte	0
	.byte	0x1
	.byte	0x7d
	.align 4
	.long	0

	.long	.LDFCM0-.
.LLSDATT14718:
	.section	.text$_ZNSt17_Function_handlerIFSt10unique_ptrINSt13__future_base12_Result_baseENS2_8_DeleterEEvENS1_12_Task_setterIS0_INS1_7_ResultIvEES3_ENSt6thread8_InvokerISt5tupleIJPFviPK8BoidListPK7BoidMapEiPSD_PSG_EEEEvEEE9_M_invokeERKSt9_Any_data,"x"
	.linkonce discard
	.seh_endproc
	.section	.text$_ZNSt17_Function_handlerIFSt10unique_ptrINSt13__future_base12_Result_baseENS2_8_DeleterEEvENS1_12_Task_setterIS0_INS1_7_ResultIvEES3_ENSt6thread8_InvokerISt5tupleIJPFvibPK7BoidMapPK5RulesPK8BoidListEibSF_SI_SL_EEEEvEEE9_M_invokeERKSt9_Any_data,"x"
	.linkonce discard
	.p2align 4
	.globl	_ZNSt17_Function_handlerIFSt10unique_ptrINSt13__future_base12_Result_baseENS2_8_DeleterEEvENS1_12_Task_setterIS0_INS1_7_ResultIvEES3_ENSt6thread8_InvokerISt5tupleIJPFvibPK7BoidMapPK5RulesPK8BoidListEibSF_SI_SL_EEEEvEEE9_M_invokeERKSt9_Any_data
	.def	_ZNSt17_Function_handlerIFSt10unique_ptrINSt13__future_base12_Result_baseENS2_8_DeleterEEvENS1_12_Task_setterIS0_INS1_7_ResultIvEES3_ENSt6thread8_InvokerISt5tupleIJPFvibPK7BoidMapPK5RulesPK8BoidListEibSF_SI_SL_EEEEvEEE9_M_invokeERKSt9_Any_data;	.scl	2;	.type	32;	.endef
	.seh_proc	_ZNSt17_Function_handlerIFSt10unique_ptrINSt13__future_base12_Result_baseENS2_8_DeleterEEvENS1_12_Task_setterIS0_INS1_7_ResultIvEES3_ENSt6thread8_InvokerISt5tupleIJPFvibPK7BoidMapPK5RulesPK8BoidListEibSF_SI_SL_EEEEvEEE9_M_invokeERKSt9_Any_data
_ZNSt17_Function_handlerIFSt10unique_ptrINSt13__future_base12_Result_baseENS2_8_DeleterEEvENS1_12_Task_setterIS0_INS1_7_ResultIvEES3_ENSt6thread8_InvokerISt5tupleIJPFvibPK7BoidMapPK5RulesPK8BoidListEibSF_SI_SL_EEEEvEEE9_M_invokeERKSt9_Any_data:
.LFB14741:
	pushq	%rdi	 #
	.seh_pushreg	%rdi
	pushq	%rsi	 #
	.seh_pushreg	%rsi
	pushq	%rbx	 #
	.seh_pushreg	%rbx
	subq	$64, %rsp	 #,
	.seh_stackalloc	64
	.seh_endprologue
 # C:/msys64/ucrt64/include/c++/13.1.0/future:1432: 	    (*_M_fn)();
	movq	8(%rdx), %rax	 # MEM[(const struct _Task_setter *)__functor_2(D)]._M_fn, _11
 # C:/msys64/ucrt64/include/c++/13.1.0/bits/invoke.h:61:     { return std::forward<_Fn>(__f)(std::forward<_Args>(__args)...); }
	movq	(%rax), %r10	 # MEM[(const struct BoidList * &)_11], MEM[(const struct BoidList * &)_11]
	movq	8(%rax), %r9	 # MEM[(const struct Rules * &)_11 + 8], MEM[(const struct Rules * &)_11 + 8]
	movq	16(%rax), %r8	 # MEM[(const struct BoidMap * &)_11 + 16], MEM[(const struct BoidMap * &)_11 + 16]
 # C:/msys64/ucrt64/include/c++/13.1.0/bits/std_function.h:288:       _M_invoke(const _Any_data& __functor, _ArgTypes&&... __args)
	movq	%rcx, %rsi	 # tmp117, <retval>
	movq	%rdx, %rbx	 # tmp118, __functor
 # C:/msys64/ucrt64/include/c++/13.1.0/bits/invoke.h:61:     { return std::forward<_Fn>(__f)(std::forward<_Args>(__args)...); }
	movl	28(%rax), %ecx	 # MEM[(int &)_11 + 28], MEM[(int &)_11 + 28]
	movzbl	24(%rax), %edx	 # MEM[(bool &)_11 + 24], MEM[(bool &)_11 + 24]
	movq	%r10, 32(%rsp)	 # MEM[(const struct BoidList * &)_11],
.LEHB3:
	call	*32(%rax)	 # MEM[(void (*<T150d1>) (int, bool, const struct BoidMap *, const struct Rules *, const struct BoidList *) &)_11 + 32]
.LEHE3:
.L74:
 # C:/msys64/ucrt64/include/c++/13.1.0/future:1442: 	return std::move(*_M_result);
	movq	(%rbx), %rax	 # MEM[(const struct _Task_setter *)__functor_2(D)]._M_result, _19
 # C:/msys64/ucrt64/include/c++/13.1.0/tuple:302:       _Tuple_impl(_Tuple_impl&&) = default;
	movq	(%rax), %rdx	 # MEM[(struct _Tuple_impl &)_19], SR.1400
 # C:/msys64/ucrt64/include/c++/13.1.0/bits/unique_ptr.h:186:       { __u._M_ptr() = nullptr; }
	movq	$0, (%rax)	 #, MEM[(struct _Result * &)_19]
 # C:/msys64/ucrt64/include/c++/13.1.0/bits/std_function.h:292:       }
	movq	%rsi, %rax	 # <retval>,
 # C:/msys64/ucrt64/include/c++/13.1.0/tuple:201: 	: _M_head_impl(std::forward<_UHead>(__h)) { }
	movq	%rdx, (%rsi)	 # SR.1400, MEM[(struct _Head_base *)_3(D)]._M_head_impl
 # C:/msys64/ucrt64/include/c++/13.1.0/bits/std_function.h:292:       }
	addq	$64, %rsp	 #,
	popq	%rbx	 #
	popq	%rsi	 #
	popq	%rdi	 #
	ret	
.L77:
 # C:/msys64/ucrt64/include/c++/13.1.0/future:1434: 	__catch(const __cxxabiv1::__forced_unwind&)
	subq	$1, %rdx	 #, tmp120
	movq	%rax, %rcx	 # tmp119, tmp110
	jne	.L71	 #,
 # C:/msys64/ucrt64/include/c++/13.1.0/future:1434: 	__catch(const __cxxabiv1::__forced_unwind&)
	vzeroupper
	call	__cxa_begin_catch	 #
.LEHB4:
 # C:/msys64/ucrt64/include/c++/13.1.0/future:1436: 	    __throw_exception_again; // will cause broken_promise
	call	__cxa_rethrow	 #
.LEHE4:
.L71:
 # C:/msys64/ucrt64/include/c++/13.1.0/future:1440: 	    (*_M_result)->_M_error = current_exception();
	leaq	56(%rsp), %rdi	 #, tmp116
 # C:/msys64/ucrt64/include/c++/13.1.0/future:1438: 	__catch(...)
	vzeroupper
	call	__cxa_begin_catch	 #
 # C:/msys64/ucrt64/include/c++/13.1.0/future:1440: 	    (*_M_result)->_M_error = current_exception();
	movq	%rdi, %rcx	 # tmp116,
	call	_ZSt17current_exceptionv	 #
 # C:/msys64/ucrt64/include/c++/13.1.0/bits/unique_ptr.h:199:       pointer    _M_ptr() const noexcept { return std::get<0>(_M_t); }
	movq	(%rbx), %rax	 # MEM[(const struct _Task_setter *)__functor_2(D)]._M_result, MEM[(const struct _Task_setter *)__functor_2(D)]._M_result
 # C:/msys64/ucrt64/include/c++/13.1.0/bits/exception_ptr.h:124:       : _M_exception_object(__o._M_exception_object)
	movq	56(%rsp), %rcx	 # D.231690._M_exception_object, _24
 # C:/msys64/ucrt64/include/c++/13.1.0/bits/unique_ptr.h:199:       pointer    _M_ptr() const noexcept { return std::get<0>(_M_t); }
	movq	(%rax), %rdx	 # MEM[(struct _Result * const &)_22], _23
 # C:/msys64/ucrt64/include/c++/13.1.0/bits/exception_ptr.h:125:       { __o._M_exception_object = nullptr; }
	xorl	%eax, %eax	 #
	movq	%rax, 56(%rsp)	 #, D.231690._M_exception_object
 # C:/msys64/ucrt64/include/c++/13.1.0/bits/exception_ptr.h:224:       _M_exception_object = __other._M_exception_object;
	movq	8(%rdx), %rax	 # MEM[(struct exception_ptr &)_23 + 8]._M_exception_object, _25
 # C:/msys64/ucrt64/include/c++/13.1.0/bits/exception_ptr.h:225:       __other._M_exception_object = __tmp;
	movq	%rcx, 8(%rdx)	 # _24, MEM[(struct exception_ptr &)_23 + 8]._M_exception_object
 # C:/msys64/ucrt64/include/c++/13.1.0/bits/exception_ptr.h:224:       _M_exception_object = __other._M_exception_object;
	movq	%rax, 48(%rsp)	 # _25, D.231689._M_exception_object
 # C:/msys64/ucrt64/include/c++/13.1.0/bits/exception_ptr.h:207:       if (_M_exception_object)
	testq	%rax, %rax	 # _25
	je	.L72	 #,
 # C:/msys64/ucrt64/include/c++/13.1.0/bits/exception_ptr.h:208: 	_M_release();
	leaq	48(%rsp), %rcx	 #, tmp113
	call	_ZNSt15__exception_ptr13exception_ptr10_M_releaseEv	 #
.L72:
 # C:/msys64/ucrt64/include/c++/13.1.0/bits/exception_ptr.h:207:       if (_M_exception_object)
	cmpq	$0, 56(%rsp)	 #, D.231690._M_exception_object
	je	.L73	 #,
 # C:/msys64/ucrt64/include/c++/13.1.0/bits/exception_ptr.h:208: 	_M_release();
	movq	%rdi, %rcx	 # tmp116,
	call	_ZNSt15__exception_ptr13exception_ptr10_M_releaseEv	 #
.L73:
.LEHB5:
 # C:/msys64/ucrt64/include/c++/13.1.0/future:1438: 	__catch(...)
	call	__cxa_end_catch	 #
	jmp	.L74	 #
.L76:
 # C:/msys64/ucrt64/include/c++/13.1.0/future:1434: 	__catch(const __cxxabiv1::__forced_unwind&)
	movq	%rax, %rbx	 # tmp121, tmp115
	vzeroupper
	call	__cxa_end_catch	 #
	movq	%rbx, %rcx	 # tmp115,
	call	_Unwind_Resume	 #
	nop	
.LEHE5:
	.seh_handler	__gxx_personality_seh0, @unwind, @except
	.seh_handlerdata
	.align 4
.LLSDA14741:
	.byte	0xff
	.byte	0x9b
	.uleb128 .LLSDATT14741-.LLSDATTD14741
.LLSDATTD14741:
	.byte	0x1
	.uleb128 .LLSDACSE14741-.LLSDACSB14741
.LLSDACSB14741:
	.uleb128 .LEHB3-.LFB14741
	.uleb128 .LEHE3-.LEHB3
	.uleb128 .L77-.LFB14741
	.uleb128 0x3
	.uleb128 .LEHB4-.LFB14741
	.uleb128 .LEHE4-.LEHB4
	.uleb128 .L76-.LFB14741
	.uleb128 0
	.uleb128 .LEHB5-.LFB14741
	.uleb128 .LEHE5-.LEHB5
	.uleb128 0
	.uleb128 0
.LLSDACSE14741:
	.byte	0x2
	.byte	0
	.byte	0x1
	.byte	0x7d
	.align 4
	.long	0

	.long	.LDFCM0-.
.LLSDATT14741:
	.section	.text$_ZNSt17_Function_handlerIFSt10unique_ptrINSt13__future_base12_Result_baseENS2_8_DeleterEEvENS1_12_Task_setterIS0_INS1_7_ResultIvEES3_ENSt6thread8_InvokerISt5tupleIJPFvibPK7BoidMapPK5RulesPK8BoidListEibSF_SI_SL_EEEEvEEE9_M_invokeERKSt9_Any_data,"x"
	.linkonce discard
	.seh_endproc
	.section	.text$_ZNSt17_Function_handlerIFSt10unique_ptrINSt13__future_base12_Result_baseENS2_8_DeleterEEvENS1_12_Task_setterIS0_INS1_7_ResultIvEES3_ENSt6thread8_InvokerISt5tupleIJPFviPK8BoidListPK7BoidMapEiPSD_PSG_EEEEvEEE10_M_managerERSt9_Any_dataRKSR_St18_Manager_operation,"x"
	.linkonce discard
	.p2align 4
	.globl	_ZNSt17_Function_handlerIFSt10unique_ptrINSt13__future_base12_Result_baseENS2_8_DeleterEEvENS1_12_Task_setterIS0_INS1_7_ResultIvEES3_ENSt6thread8_InvokerISt5tupleIJPFviPK8BoidListPK7BoidMapEiPSD_PSG_EEEEvEEE10_M_managerERSt9_Any_dataRKSR_St18_Manager_operation
	.def	_ZNSt17_Function_handlerIFSt10unique_ptrINSt13__future_base12_Result_baseENS2_8_DeleterEEvENS1_12_Task_setterIS0_INS1_7_ResultIvEES3_ENSt6thread8_InvokerISt5tupleIJPFviPK8BoidListPK7BoidMapEiPSD_PSG_EEEEvEEE10_M_managerERSt9_Any_dataRKSR_St18_Manager_operation;	.scl	2;	.type	32;	.endef
	.seh_proc	_ZNSt17_Function_handlerIFSt10unique_ptrINSt13__future_base12_Result_baseENS2_8_DeleterEEvENS1_12_Task_setterIS0_INS1_7_ResultIvEES3_ENSt6thread8_InvokerISt5tupleIJPFviPK8BoidListPK7BoidMapEiPSD_PSG_EEEEvEEE10_M_managerERSt9_Any_dataRKSR_St18_Manager_operation
_ZNSt17_Function_handlerIFSt10unique_ptrINSt13__future_base12_Result_baseENS2_8_DeleterEEvENS1_12_Task_setterIS0_INS1_7_ResultIvEES3_ENSt6thread8_InvokerISt5tupleIJPFviPK8BoidListPK7BoidMapEiPSD_PSG_EEEEvEEE10_M_managerERSt9_Any_dataRKSR_St18_Manager_operation:
.LFB14721:
	.seh_endprologue
 # C:/msys64/ucrt64/include/c++/13.1.0/bits/std_function.h:270: 	switch (__op)
	testl	%r8d, %r8d	 # __op
	je	.L83	 #,
	cmpl	$1, %r8d	 #, __op
	jne	.L88	 #,
 # C:/msys64/ucrt64/include/c++/13.1.0/bits/std_function.h:278: 	    __dest._M_access<_Functor*>() = _Base::_M_get_pointer(__source);
	movq	%rdx, (%rcx)	 # __source, MEM[(struct _Task_setter * &)__dest_5(D)]
.L86:
 # C:/msys64/ucrt64/include/c++/13.1.0/bits/std_function.h:285:       }
	xorl	%eax, %eax	 #
	ret	
	.p2align 4,,10
	.p2align 3
.L88:
 # C:/msys64/ucrt64/include/c++/13.1.0/bits/std_function.h:183: 	  switch (__op)
	cmpl	$2, %r8d	 #, __op
	jne	.L86	 #,
 # C:/msys64/ucrt64/include/c++/13.1.0/bits/std_function.h:152: 	    ::new (__dest._M_access()) _Functor(std::forward<_Fn>(__f));
	movq	(%rdx), %rax	 # MEM[(const struct _Task_setter &)__source_4(D)], MEM[(const struct _Task_setter &)__source_4(D)]
	movq	8(%rdx), %rdx	 # MEM[(const struct _Task_setter &)__source_4(D)], MEM[(const struct _Task_setter &)__source_4(D)]
	movq	%rax, (%rcx)	 # MEM[(const struct _Task_setter &)__source_4(D)], MEM[(struct _Task_setter *)__dest_5(D)]
	movq	%rdx, 8(%rcx)	 # MEM[(const struct _Task_setter &)__source_4(D)], MEM[(struct _Task_setter *)__dest_5(D)]
 # C:/msys64/ucrt64/include/c++/13.1.0/bits/std_function.h:216: 	  }
	jmp	.L86	 #
	.p2align 4,,10
	.p2align 3
.L83:
 # C:/msys64/ucrt64/include/c++/13.1.0/bits/std_function.h:274: 	    __dest._M_access<const type_info*>() = &typeid(_Functor);
	leaq	_ZTINSt13__future_base12_Task_setterISt10unique_ptrINS_7_ResultIvEENS_12_Result_base8_DeleterEENSt6thread8_InvokerISt5tupleIJPFviPK8BoidListPK7BoidMapEiPSA_PSD_EEEEvEE(%rip), %rax	 #, tmp94
	movq	%rax, (%rcx)	 # tmp94, MEM[(const struct type_info * &)__dest_5(D)]
 # C:/msys64/ucrt64/include/c++/13.1.0/bits/std_function.h:285:       }
	xorl	%eax, %eax	 #
	ret	
	.seh_endproc
	.section	.text$_ZNSt17_Function_handlerIFSt10unique_ptrINSt13__future_base12_Result_baseENS2_8_DeleterEEvENS1_12_Task_setterIS0_INS1_7_ResultIvEES3_ENSt6thread8_InvokerISt5tupleIJPFvibPK7BoidMapPK5RulesPK8BoidListEibSF_SI_SL_EEEEvEEE10_M_managerERSt9_Any_dataRKSS_St18_Manager_operation,"x"
	.linkonce discard
	.p2align 4
	.globl	_ZNSt17_Function_handlerIFSt10unique_ptrINSt13__future_base12_Result_baseENS2_8_DeleterEEvENS1_12_Task_setterIS0_INS1_7_ResultIvEES3_ENSt6thread8_InvokerISt5tupleIJPFvibPK7BoidMapPK5RulesPK8BoidListEibSF_SI_SL_EEEEvEEE10_M_managerERSt9_Any_dataRKSS_St18_Manager_operation
	.def	_ZNSt17_Function_handlerIFSt10unique_ptrINSt13__future_base12_Result_baseENS2_8_DeleterEEvENS1_12_Task_setterIS0_INS1_7_ResultIvEES3_ENSt6thread8_InvokerISt5tupleIJPFvibPK7BoidMapPK5RulesPK8BoidListEibSF_SI_SL_EEEEvEEE10_M_managerERSt9_Any_dataRKSS_St18_Manager_operation;	.scl	2;	.type	32;	.endef
	.seh_proc	_ZNSt17_Function_handlerIFSt10unique_ptrINSt13__future_base12_Result_baseENS2_8_DeleterEEvENS1_12_Task_setterIS0_INS1_7_ResultIvEES3_ENSt6thread8_InvokerISt5tupleIJPFvibPK7BoidMapPK5RulesPK8BoidListEibSF_SI_SL_EEEEvEEE10_M_managerERSt9_Any_dataRKSS_St18_Manager_operation
_ZNSt17_Function_handlerIFSt10unique_ptrINSt13__future_base12_Result_baseENS2_8_DeleterEEvENS1_12_Task_setterIS0_INS1_7_ResultIvEES3_ENSt6thread8_InvokerISt5tupleIJPFvibPK7BoidMapPK5RulesPK8BoidListEibSF_SI_SL_EEEEvEEE10_M_managerERSt9_Any_dataRKSS_St18_Manager_operation:
.LFB14744:
	.seh_endprologue
 # C:/msys64/ucrt64/include/c++/13.1.0/bits/std_function.h:270: 	switch (__op)
	testl	%r8d, %r8d	 # __op
	je	.L90	 #,
	cmpl	$1, %r8d	 #, __op
	jne	.L95	 #,
 # C:/msys64/ucrt64/include/c++/13.1.0/bits/std_function.h:278: 	    __dest._M_access<_Functor*>() = _Base::_M_get_pointer(__source);
	movq	%rdx, (%rcx)	 # __source, MEM[(struct _Task_setter * &)__dest_5(D)]
.L93:
 # C:/msys64/ucrt64/include/c++/13.1.0/bits/std_function.h:285:       }
	xorl	%eax, %eax	 #
	ret	
	.p2align 4,,10
	.p2align 3
.L95:
 # C:/msys64/ucrt64/include/c++/13.1.0/bits/std_function.h:183: 	  switch (__op)
	cmpl	$2, %r8d	 #, __op
	jne	.L93	 #,
 # C:/msys64/ucrt64/include/c++/13.1.0/bits/std_function.h:152: 	    ::new (__dest._M_access()) _Functor(std::forward<_Fn>(__f));
	movq	(%rdx), %rax	 # MEM[(const struct _Task_setter &)__source_4(D)], MEM[(const struct _Task_setter &)__source_4(D)]
	movq	8(%rdx), %rdx	 # MEM[(const struct _Task_setter &)__source_4(D)], MEM[(const struct _Task_setter &)__source_4(D)]
	movq	%rax, (%rcx)	 # MEM[(const struct _Task_setter &)__source_4(D)], MEM[(struct _Task_setter *)__dest_5(D)]
	movq	%rdx, 8(%rcx)	 # MEM[(const struct _Task_setter &)__source_4(D)], MEM[(struct _Task_setter *)__dest_5(D)]
 # C:/msys64/ucrt64/include/c++/13.1.0/bits/std_function.h:216: 	  }
	jmp	.L93	 #
	.p2align 4,,10
	.p2align 3
.L90:
 # C:/msys64/ucrt64/include/c++/13.1.0/bits/std_function.h:274: 	    __dest._M_access<const type_info*>() = &typeid(_Functor);
	leaq	_ZTINSt13__future_base12_Task_setterISt10unique_ptrINS_7_ResultIvEENS_12_Result_base8_DeleterEENSt6thread8_InvokerISt5tupleIJPFvibPK7BoidMapPK5RulesPK8BoidListEibSC_SF_SI_EEEEvEE(%rip), %rax	 #, tmp94
	movq	%rax, (%rcx)	 # tmp94, MEM[(const struct type_info * &)__dest_5(D)]
 # C:/msys64/ucrt64/include/c++/13.1.0/bits/std_function.h:285:       }
	xorl	%eax, %eax	 #
	ret	
	.seh_endproc
	.section	.text$_ZZNSt9once_flag18_Prepare_executionC4IZSt9call_onceIMNSt13__future_base13_State_baseV2EFvPSt8functionIFSt10unique_ptrINS3_12_Result_baseENS7_8_DeleterEEvEEPbEJPS4_SC_SD_EEvRS_OT_DpOT0_EUlvE_EERSI_ENUlvE_4_FUNEv,"x"
	.linkonce discard
	.p2align 4
	.globl	_ZZNSt9once_flag18_Prepare_executionC4IZSt9call_onceIMNSt13__future_base13_State_baseV2EFvPSt8functionIFSt10unique_ptrINS3_12_Result_baseENS7_8_DeleterEEvEEPbEJPS4_SC_SD_EEvRS_OT_DpOT0_EUlvE_EERSI_ENUlvE_4_FUNEv
	.def	_ZZNSt9once_flag18_Prepare_executionC4IZSt9call_onceIMNSt13__future_base13_State_baseV2EFvPSt8functionIFSt10unique_ptrINS3_12_Result_baseENS7_8_DeleterEEvEEPbEJPS4_SC_SD_EEvRS_OT_DpOT0_EUlvE_EERSI_ENUlvE_4_FUNEv;	.scl	2;	.type	32;	.endef
	.seh_proc	_ZZNSt9once_flag18_Prepare_executionC4IZSt9call_onceIMNSt13__future_base13_State_baseV2EFvPSt8functionIFSt10unique_ptrINS3_12_Result_baseENS7_8_DeleterEEvEEPbEJPS4_SC_SD_EEvRS_OT_DpOT0_EUlvE_EERSI_ENUlvE_4_FUNEv
_ZZNSt9once_flag18_Prepare_executionC4IZSt9call_onceIMNSt13__future_base13_State_baseV2EFvPSt8functionIFSt10unique_ptrINS3_12_Result_baseENS7_8_DeleterEEvEEPbEJPS4_SC_SD_EEvRS_OT_DpOT0_EUlvE_EERSI_ENUlvE_4_FUNEv:
.LFB13554:
	subq	$40, %rsp	 #,
	.seh_stackalloc	40
	.seh_endprologue
 # C:/msys64/ucrt64/include/c++/13.1.0/mutex:836: 	__once_call = [] { (*static_cast<_Callable*>(__once_callable))(); };
	movq	.refptr.__emutls_v._ZSt15__once_callable(%rip), %rcx	 #,
	call	__emutls_get_address	 #
	movq	(%rax), %rax	 # *_4, __once_callable.78_2
 # C:/msys64/ucrt64/include/c++/13.1.0/mutex:900: 	  std::__invoke(std::forward<_Callable>(__f),
	movq	(%rax), %rdx	 # MEM[(const struct ._anon_310 *)__once_callable.78_2].____f, _8
	movq	24(%rax), %r8	 # MEM[(const struct ._anon_310 *)__once_callable.78_2].____args#2, _5
	movq	16(%rax), %r10	 # MEM[(const struct ._anon_310 *)__once_callable.78_2].____args#1, _6
 # C:/msys64/ucrt64/include/c++/13.1.0/bits/invoke.h:74:       return ((*std::forward<_Tp>(__t)).*__f)(std::forward<_Args>(__args)...);
	movq	8(%rax), %rax	 # MEM[(const struct ._anon_310 *)__once_callable.78_2].____args#0, MEM[(const struct ._anon_310 *)__once_callable.78_2].____args#0
	movq	(%rdx), %r9	 # _8->__pfn, _10
 # C:/msys64/ucrt64/include/c++/13.1.0/bits/invoke.h:74:       return ((*std::forward<_Tp>(__t)).*__f)(std::forward<_Args>(__args)...);
	movq	8(%rdx), %rcx	 # _8->__delta, _8->__delta
	addq	(%rax), %rcx	 # *_7, _35
 # C:/msys64/ucrt64/include/c++/13.1.0/bits/invoke.h:74:       return ((*std::forward<_Tp>(__t)).*__f)(std::forward<_Args>(__args)...);
	testb	$1, %r9b	 #, _10
	je	.L97	 #,
 # C:/msys64/ucrt64/include/c++/13.1.0/bits/invoke.h:74:       return ((*std::forward<_Tp>(__t)).*__f)(std::forward<_Args>(__args)...);
	movq	(%rcx), %rax	 # MEM[(int (*) () * *)_35], MEM[(int (*) () * *)_35]
	movq	-1(%rax,%r9), %r9	 # *_19, _10
.L97:
 # C:/msys64/ucrt64/include/c++/13.1.0/bits/invoke.h:74:       return ((*std::forward<_Tp>(__t)).*__f)(std::forward<_Args>(__args)...);
	movq	(%r10), %rdx	 # *_6, *_6
	movq	(%r8), %r8	 # *_5,
 # C:/msys64/ucrt64/include/c++/13.1.0/mutex:836: 	__once_call = [] { (*static_cast<_Callable*>(__once_callable))(); };
	addq	$40, %rsp	 #,
 # C:/msys64/ucrt64/include/c++/13.1.0/bits/invoke.h:74:       return ((*std::forward<_Tp>(__t)).*__f)(std::forward<_Args>(__args)...);
	rex.W jmp	*%r9	 # _10
	.seh_endproc
	.section	.text$_ZNSt13__future_base21_Async_state_commonV217_M_complete_asyncEv,"x"
	.linkonce discard
	.align 2
	.p2align 4
	.globl	_ZNSt13__future_base21_Async_state_commonV217_M_complete_asyncEv
	.def	_ZNSt13__future_base21_Async_state_commonV217_M_complete_asyncEv;	.scl	2;	.type	32;	.endef
	.seh_proc	_ZNSt13__future_base21_Async_state_commonV217_M_complete_asyncEv
_ZNSt13__future_base21_Async_state_commonV217_M_complete_asyncEv:
.LFB11909:
	pushq	%rdi	 #
	.seh_pushreg	%rdi
	pushq	%rsi	 #
	.seh_pushreg	%rsi
	pushq	%rbx	 #
	.seh_pushreg	%rbx
	subq	$80, %rsp	 #,
	.seh_stackalloc	80
	.seh_endprologue
 # C:/msys64/ucrt64/include/c++/13.1.0/future:1737:     void _M_join() { std::call_once(_M_once, &thread::join, &_M_thread); }
	movq	$0, 56(%rsp)	 #, D.228275.__delta
 # C:/msys64/ucrt64/include/c++/13.1.0/future:1737:     void _M_join() { std::call_once(_M_once, &thread::join, &_M_thread); }
	leaq	48(%rcx), %rax	 #, tmp92
 # C:/msys64/ucrt64/include/c++/13.1.0/future:1735:     virtual void _M_complete_async() { _M_join(); }
	movq	%rcx, %rbx	 # tmp105, this
 # C:/msys64/ucrt64/include/c++/13.1.0/mutex:834: 	__once_callable = std::__addressof(__c);
	movq	.refptr.__emutls_v._ZSt15__once_callable(%rip), %rcx	 #,
 # C:/msys64/ucrt64/include/c++/13.1.0/future:1737:     void _M_join() { std::call_once(_M_once, &thread::join, &_M_thread); }
	movq	%rax, 40(%rsp)	 # tmp92, D.228276
 # C:/msys64/ucrt64/include/c++/13.1.0/future:1737:     void _M_join() { std::call_once(_M_once, &thread::join, &_M_thread); }
	movq	.refptr._ZNSt6thread4joinEv(%rip), %rax	 #, tmp93
	movq	%rax, 48(%rsp)	 # tmp93, D.228275.__pfn
 # C:/msys64/ucrt64/include/c++/13.1.0/mutex:899:       auto __callable = [&] {
	leaq	48(%rsp), %rax	 #, tmp95
	vmovq	%rax, %xmm0	 # tmp95, tmp95
	leaq	40(%rsp), %rax	 #, tmp96
	vpinsrq	$1, %rax, %xmm0, %xmm0	 # tmp96, tmp95, tmp94
	vmovdqu	%xmm0, 64(%rsp)	 # tmp94, MEM <vector(2) long long unsigned int> [(void *)&__callable]
 # C:/msys64/ucrt64/include/c++/13.1.0/mutex:834: 	__once_callable = std::__addressof(__c);
	call	__emutls_get_address	 #
 # C:/msys64/ucrt64/include/c++/13.1.0/mutex:836: 	__once_call = [] { (*static_cast<_Callable*>(__once_callable))(); };
	movq	.refptr.__emutls_v._ZSt11__once_call(%rip), %rcx	 #,
 # C:/msys64/ucrt64/include/c++/13.1.0/mutex:834: 	__once_callable = std::__addressof(__c);
	movq	%rax, %rdi	 # tmp106, _11
	leaq	64(%rsp), %rax	 #, tmp98
	movq	%rax, (%rdi)	 # tmp98, *_11
 # C:/msys64/ucrt64/include/c++/13.1.0/mutex:836: 	__once_call = [] { (*static_cast<_Callable*>(__once_callable))(); };
	call	__emutls_get_address	 #
 # C:/msys64/ucrt64/include/c++/13.1.0/x86_64-w64-mingw32/bits/gthr-default.h:700:     return __gthrw_(pthread_once) (__once, __func);
	movq	.refptr.__once_proxy(%rip), %rdx	 #,
 # C:/msys64/ucrt64/include/c++/13.1.0/mutex:907:       if (int __e = __gthread_once(&__once._M_once, &__once_proxy))
	leaq	56(%rbx), %rcx	 #, tmp102
 # C:/msys64/ucrt64/include/c++/13.1.0/mutex:836: 	__once_call = [] { (*static_cast<_Callable*>(__once_callable))(); };
	movq	%rax, %rsi	 # tmp107, _12
	leaq	_ZZNSt9once_flag18_Prepare_executionC4IZSt9call_onceIMSt6threadFvvEJPS3_EEvRS_OT_DpOT0_EUlvE_EERS8_ENUlvE_4_FUNEv(%rip), %rax	 #, tmp101
	movq	%rax, (%rsi)	 # tmp101, *_12
.LEHB6:
 # C:/msys64/ucrt64/include/c++/13.1.0/x86_64-w64-mingw32/bits/gthr-default.h:700:     return __gthrw_(pthread_once) (__once, __func);
	call	pthread_once	 #
 # C:/msys64/ucrt64/include/c++/13.1.0/mutex:907:       if (int __e = __gthread_once(&__once._M_once, &__once_proxy))
	testl	%eax, %eax	 # _14
	jne	.L107	 #,
 # C:/msys64/ucrt64/include/c++/13.1.0/mutex:842:       __once_callable = nullptr;
	movq	$0, (%rdi)	 #, *_11
 # C:/msys64/ucrt64/include/c++/13.1.0/mutex:843:       __once_call = nullptr;
	movq	$0, (%rsi)	 #, *_12
 # C:/msys64/ucrt64/include/c++/13.1.0/future:1735:     virtual void _M_complete_async() { _M_join(); }
	addq	$80, %rsp	 #,
	popq	%rbx	 #
	popq	%rsi	 #
	popq	%rdi	 #
	ret	
.L107:
 # C:/msys64/ucrt64/include/c++/13.1.0/mutex:908: 	__throw_system_error(__e);
	movl	%eax, %ecx	 # _14,
	call	_ZSt20__throw_system_errori	 #
.LEHE6:
.L104:
 # C:/msys64/ucrt64/include/c++/13.1.0/mutex:842:       __once_callable = nullptr;
	movq	%rax, %rcx	 # tmp109, tmp104
 # C:/msys64/ucrt64/include/c++/13.1.0/mutex:843:       __once_call = nullptr;
	xorl	%eax, %eax	 #
	movq	%rax, (%rdi)	 #, *_11
	movq	%rax, (%rsi)	 #, *_12
	vzeroupper
.LEHB7:
	call	_Unwind_Resume	 #
	nop	
.LEHE7:
	.seh_handler	__gxx_personality_seh0, @unwind, @except
	.seh_handlerdata
.LLSDA11909:
	.byte	0xff
	.byte	0xff
	.byte	0x1
	.uleb128 .LLSDACSE11909-.LLSDACSB11909
.LLSDACSB11909:
	.uleb128 .LEHB6-.LFB11909
	.uleb128 .LEHE6-.LEHB6
	.uleb128 .L104-.LFB11909
	.uleb128 0
	.uleb128 .LEHB7-.LFB11909
	.uleb128 .LEHE7-.LEHB7
	.uleb128 0
	.uleb128 0
.LLSDACSE11909:
	.section	.text$_ZNSt13__future_base21_Async_state_commonV217_M_complete_asyncEv,"x"
	.linkonce discard
	.seh_endproc
	.text
	.p2align 4
	.def	_ZZ13update_boids2RK7BoidMapP15row_runner_argsP10TaskMasterP8TaskSyncENUlS5_P4TaskE_4_FUNES5_S9_;	.scl	3;	.type	32;	.endef
	.seh_proc	_ZZ13update_boids2RK7BoidMapP15row_runner_argsP10TaskMasterP8TaskSyncENUlS5_P4TaskE_4_FUNES5_S9_
_ZZ13update_boids2RK7BoidMapP15row_runner_argsP10TaskMasterP8TaskSyncENUlS5_P4TaskE_4_FUNES5_S9_:
.LFB12626:
	pushq	%rdi	 #
	.seh_pushreg	%rdi
	pushq	%rsi	 #
	.seh_pushreg	%rsi
	pushq	%rbx	 #
	.seh_pushreg	%rbx
	.seh_endprologue
 # .\src\main.cpp:1215:                 .on_complete = (void *) (+[](TaskMaster *task_master, Task *current_task)
	movq	%rdx, %rbx	 # tmp120, D.170077
 # .\src\main.cpp:1217:                     auto old_args = ((row_runner_args *)current_task->argument_struct);
	movq	8(%rdx), %rdx	 # _3(D)->argument_struct, old_args
	leaq	66144(%rcx), %rax	 #, _6
	.p2align 4,,10
	.p2align 3
.L109:
 # C:/msys64/ucrt64/include/psdk_inc/intrin-impl.h:1800: __buildbittesti(_interlockedbittestandset, __LONG32, "lock bts{l %[Offset],%[Base] | %[Base],%[Offset]}" __FLAGSET, "I")
/APP
 # 1800 "C:/msys64/ucrt64/include/psdk_inc/intrin-impl.h" 1
	lock btsl $0,(%rax) 	 #, MEM[(volatile long int *)_6]
 # 0 "" 2
 # .\src\.\task_master\lock.h:40:         while (_interlockedbittestandset(&lock_internal, 0)) {}
/NO_APP
	jc	.L109	 #,
 # .\src\main.cpp:1221:                     for (int y = 1; y < old_args->boid_map->m_ysize; y += 2) {
	movq	(%rdx), %rax	 # old_args_5->boid_map, old_args_5->boid_map
 # .\src\main.cpp:1237:                     current_task->sync->task_counter = tasks_added;
	movq	16(%rbx), %r11	 # _3(D)->sync, prephitmp_19
 # .\src\main.cpp:1221:                     for (int y = 1; y < old_args->boid_map->m_ysize; y += 2) {
	movl	(%rax), %r10d	 # _28->m_ysize, _41
 # .\src\main.cpp:1221:                     for (int y = 1; y < old_args->boid_map->m_ysize; y += 2) {
	cmpl	$1, %r10d	 #, _41
	jle	.L114	 #,
 # .\src\.\task_master\ringbuffer.h:18:         size_t next = (head + 1) % capacity;
	movq	65552(%rcx), %rax	 # MEM[(struct RingBuffer *)_2(D) + 16B].head, pretmp_61
	movq	24(%rdx), %r9	 # old_args_5->arg_store, old_args_5->arg_store
 # .\src\main.cpp:1221:                     for (int y = 1; y < old_args->boid_map->m_ysize; y += 2) {
	movl	$1, %r8d	 #, y
 # .\src\.\task_master\ringbuffer.h:21:             data[head] = item;
	leaq	_ZZZ13update_boids2RK7BoidMapP15row_runner_argsP10TaskMasterP8TaskSyncENKUlS5_P4TaskE_clES5_S9_ENUlS5_S9_E_4_FUNES5_S9_(%rip), %rsi	 #, tmp118
 # .\src\.\task_master\ringbuffer.h:19:         if (next != tail)
	movq	65560(%rcx), %rdi	 # MEM[(struct RingBuffer *)_2(D) + 16B].tail, _17
 # .\src\.\task_master\ringbuffer.h:18:         size_t next = (head + 1) % capacity;
	leaq	1(%rax), %rdx	 #, tmp112
	addq	$40, %r9	 #, ivtmp.1431
 # .\src\.\task_master\ringbuffer.h:18:         size_t next = (head + 1) % capacity;
	andl	$2047, %edx	 #, next
 # .\src\.\task_master\ringbuffer.h:19:         if (next != tail)
	cmpq	%rdi, %rdx	 # _17, next
	je	.L111	 #,
.L118:
	salq	$5, %rax	 #, _22
 # .\src\main.cpp:1221:                     for (int y = 1; y < old_args->boid_map->m_ysize; y += 2) {
	addl	$2, %r8d	 #, y
 # .\src\.\task_master\ringbuffer.h:21:             data[head] = item;
	movl	$2, 16(%rcx,%rax)	 #, MEM <unsigned int> [(struct Task *)_18]
	addq	%rcx, %rax	 # D.170076, _49
	movq	%r9, 24(%rax)	 # ivtmp.1431, MEM <void *> [(struct RingBuffer *)_49 + 24B]
	movq	%r11, 32(%rax)	 # prephitmp_19, MEM <struct TaskSync *> [(struct RingBuffer *)_49 + 32B]
	movq	%rsi, 40(%rax)	 # tmp118, MEM <void *> [(struct RingBuffer *)_49 + 40B]
 # .\src\main.cpp:1237:                     current_task->sync->task_counter = tasks_added;
	movq	16(%rbx), %r11	 # _3(D)->sync, prephitmp_19
 # .\src\.\task_master\ringbuffer.h:22:             head = next;
	movq	%rdx, 65552(%rcx)	 # next, MEM[(struct RingBuffer *)_2(D) + 16B].head
 # .\src\main.cpp:1221:                     for (int y = 1; y < old_args->boid_map->m_ysize; y += 2) {
	cmpl	%r10d, %r8d	 # _41, y
	jge	.L111	 #,
	movq	%rdx, %rax	 # next, pretmp_61
	addq	$80, %r9	 #, ivtmp.1431
 # .\src\.\task_master\ringbuffer.h:18:         size_t next = (head + 1) % capacity;
	leaq	1(%rax), %rdx	 #, tmp112
 # .\src\.\task_master\ringbuffer.h:18:         size_t next = (head + 1) % capacity;
	andl	$2047, %edx	 #, next
 # .\src\.\task_master\ringbuffer.h:19:         if (next != tail)
	cmpq	%rdi, %rdx	 # _17, next
	jne	.L118	 #,
.L111:
 # .\src\main.cpp:1237:                     current_task->sync->task_counter = tasks_added;
	subl	$2, %r10d	 #, tmp114
	shrl	%r10d	 # tmp115
	addl	$1, %r10d	 #, _57
.L110:
 # .\src\main.cpp:1237:                     current_task->sync->task_counter = tasks_added;
	movl	%r10d, 4(%r11)	 # _57, prephitmp_56->task_counter
 # C:/msys64/ucrt64/include/psdk_inc/intrin-impl.h:1809: __buildbittesti(_interlockedbittestandreset, __LONG32, "lock btr{l %[Offset],%[Base] | %[Base],%[Offset]}" __FLAGSET, "I")
/APP
 # 1809 "C:/msys64/ucrt64/include/psdk_inc/intrin-impl.h" 1
	lock btrl $0,66144(%rcx) 	 #, MEM[(volatile long int *)_6]
 # 0 "" 2
 # .\src\main.cpp:1239:                 }),
/NO_APP
	popq	%rbx	 #
	popq	%rsi	 #
	popq	%rdi	 #
	ret	
	.p2align 4,,10
	.p2align 3
.L114:
 # .\src\main.cpp:1221:                     for (int y = 1; y < old_args->boid_map->m_ysize; y += 2) {
	xorl	%r10d, %r10d	 # _57
	jmp	.L110	 #
	.seh_endproc
	.section	.text$_ZNSt23_Sp_counted_ptr_inplaceINSt13__future_base17_Async_state_implINSt6thread8_InvokerISt5tupleIJPFvibPK7BoidMapPK5RulesPK8BoidListEibS7_SA_SD_EEEEvEESaIvELN9__gnu_cxx12_Lock_policyE2EE10_M_destroyEv,"x"
	.linkonce discard
	.align 2
	.p2align 4
	.globl	_ZNSt23_Sp_counted_ptr_inplaceINSt13__future_base17_Async_state_implINSt6thread8_InvokerISt5tupleIJPFvibPK7BoidMapPK5RulesPK8BoidListEibS7_SA_SD_EEEEvEESaIvELN9__gnu_cxx12_Lock_policyE2EE10_M_destroyEv
	.def	_ZNSt23_Sp_counted_ptr_inplaceINSt13__future_base17_Async_state_implINSt6thread8_InvokerISt5tupleIJPFvibPK7BoidMapPK5RulesPK8BoidListEibS7_SA_SD_EEEEvEESaIvELN9__gnu_cxx12_Lock_policyE2EE10_M_destroyEv;	.scl	2;	.type	32;	.endef
	.seh_proc	_ZNSt23_Sp_counted_ptr_inplaceINSt13__future_base17_Async_state_implINSt6thread8_InvokerISt5tupleIJPFvibPK7BoidMapPK5RulesPK8BoidListEibS7_SA_SD_EEEEvEESaIvELN9__gnu_cxx12_Lock_policyE2EE10_M_destroyEv
_ZNSt23_Sp_counted_ptr_inplaceINSt13__future_base17_Async_state_implINSt6thread8_InvokerISt5tupleIJPFvibPK7BoidMapPK5RulesPK8BoidListEibS7_SA_SD_EEEEvEESaIvELN9__gnu_cxx12_Lock_policyE2EE10_M_destroyEv:
.LFB14959:
	.seh_endprologue
 # C:/msys64/ucrt64/include/c++/13.1.0/bits/new_allocator.h:168: 	_GLIBCXX_OPERATOR_DELETE(_GLIBCXX_SIZED_DEALLOC(__p, __n));
	movl	$128, %edx	 #,
 # C:/msys64/ucrt64/include/c++/13.1.0/bits/shared_ptr_base.h:623:       }
 # C:/msys64/ucrt64/include/c++/13.1.0/bits/new_allocator.h:168: 	_GLIBCXX_OPERATOR_DELETE(_GLIBCXX_SIZED_DEALLOC(__p, __n));
	jmp	_ZdlPvy	 #
	.seh_endproc
	.section	.text$_ZZNSt9once_flag18_Prepare_executionC4IZSt9call_onceIMSt6threadFvvEJPS3_EEvRS_OT_DpOT0_EUlvE_EERS8_ENUlvE_4_FUNEv,"x"
	.linkonce discard
	.p2align 4
	.globl	_ZZNSt9once_flag18_Prepare_executionC4IZSt9call_onceIMSt6threadFvvEJPS3_EEvRS_OT_DpOT0_EUlvE_EERS8_ENUlvE_4_FUNEv
	.def	_ZZNSt9once_flag18_Prepare_executionC4IZSt9call_onceIMSt6threadFvvEJPS3_EEvRS_OT_DpOT0_EUlvE_EERS8_ENUlvE_4_FUNEv;	.scl	2;	.type	32;	.endef
	.seh_proc	_ZZNSt9once_flag18_Prepare_executionC4IZSt9call_onceIMSt6threadFvvEJPS3_EEvRS_OT_DpOT0_EUlvE_EERS8_ENUlvE_4_FUNEv
_ZZNSt9once_flag18_Prepare_executionC4IZSt9call_onceIMSt6threadFvvEJPS3_EEvRS_OT_DpOT0_EUlvE_EERS8_ENUlvE_4_FUNEv:
.LFB13642:
	subq	$40, %rsp	 #,
	.seh_stackalloc	40
	.seh_endprologue
 # C:/msys64/ucrt64/include/c++/13.1.0/mutex:836: 	__once_call = [] { (*static_cast<_Callable*>(__once_callable))(); };
	movq	.refptr.__emutls_v._ZSt15__once_callable(%rip), %rcx	 #,
	call	__emutls_get_address	 #
	movq	(%rax), %rcx	 # *_4, __once_callable.65_2
	movq	(%rcx), %rdx	 # MEM[(struct  & *)__once_callable.65_2], _5
 # C:/msys64/ucrt64/include/c++/13.1.0/bits/invoke.h:74:       return ((*std::forward<_Tp>(__t)).*__f)(std::forward<_Args>(__args)...);
	movq	8(%rcx), %r8	 # MEM[(struct thread * & *)__once_callable.65_2 + 8B], MEM[(struct thread * & *)__once_callable.65_2 + 8B]
	movq	(%rdx), %rax	 # _5->__pfn, _10
 # C:/msys64/ucrt64/include/c++/13.1.0/bits/invoke.h:74:       return ((*std::forward<_Tp>(__t)).*__f)(std::forward<_Args>(__args)...);
	movq	8(%rdx), %rcx	 # _5->__delta, _5->__delta
	addq	(%r8), %rcx	 # *_6, _31
 # C:/msys64/ucrt64/include/c++/13.1.0/bits/invoke.h:74:       return ((*std::forward<_Tp>(__t)).*__f)(std::forward<_Args>(__args)...);
	testb	$1, %al	 #, _10
	je	.L121	 #,
 # C:/msys64/ucrt64/include/c++/13.1.0/bits/invoke.h:74:       return ((*std::forward<_Tp>(__t)).*__f)(std::forward<_Args>(__args)...);
	movq	(%rcx), %rdx	 # MEM[(int (*) () * *)_31], MEM[(int (*) () * *)_31]
	movq	-1(%rdx,%rax), %rax	 # *_19, _10
.L121:
 # C:/msys64/ucrt64/include/c++/13.1.0/mutex:836: 	__once_call = [] { (*static_cast<_Callable*>(__once_callable))(); };
	addq	$40, %rsp	 #,
 # C:/msys64/ucrt64/include/c++/13.1.0/bits/invoke.h:74:       return ((*std::forward<_Tp>(__t)).*__f)(std::forward<_Args>(__args)...);
	rex.W jmp	*%rax	 # _10
	.seh_endproc
	.section	.text$_ZNSt23_Sp_counted_ptr_inplaceINSt13__future_base15_Deferred_stateINSt6thread8_InvokerISt5tupleIJPFvibPK7BoidMapPK5RulesPK8BoidListEibS7_SA_SD_EEEEvEESaIvELN9__gnu_cxx12_Lock_policyE2EE10_M_destroyEv,"x"
	.linkonce discard
	.align 2
	.p2align 4
	.globl	_ZNSt23_Sp_counted_ptr_inplaceINSt13__future_base15_Deferred_stateINSt6thread8_InvokerISt5tupleIJPFvibPK7BoidMapPK5RulesPK8BoidListEibS7_SA_SD_EEEEvEESaIvELN9__gnu_cxx12_Lock_policyE2EE10_M_destroyEv
	.def	_ZNSt23_Sp_counted_ptr_inplaceINSt13__future_base15_Deferred_stateINSt6thread8_InvokerISt5tupleIJPFvibPK7BoidMapPK5RulesPK8BoidListEibS7_SA_SD_EEEEvEESaIvELN9__gnu_cxx12_Lock_policyE2EE10_M_destroyEv;	.scl	2;	.type	32;	.endef
	.seh_proc	_ZNSt23_Sp_counted_ptr_inplaceINSt13__future_base15_Deferred_stateINSt6thread8_InvokerISt5tupleIJPFvibPK7BoidMapPK5RulesPK8BoidListEibS7_SA_SD_EEEEvEESaIvELN9__gnu_cxx12_Lock_policyE2EE10_M_destroyEv
_ZNSt23_Sp_counted_ptr_inplaceINSt13__future_base15_Deferred_stateINSt6thread8_InvokerISt5tupleIJPFvibPK7BoidMapPK5RulesPK8BoidListEibS7_SA_SD_EEEEvEESaIvELN9__gnu_cxx12_Lock_policyE2EE10_M_destroyEv:
.LFB14952:
	.seh_endprologue
 # C:/msys64/ucrt64/include/c++/13.1.0/bits/new_allocator.h:168: 	_GLIBCXX_OPERATOR_DELETE(_GLIBCXX_SIZED_DEALLOC(__p, __n));
	movl	$112, %edx	 #,
 # C:/msys64/ucrt64/include/c++/13.1.0/bits/shared_ptr_base.h:623:       }
 # C:/msys64/ucrt64/include/c++/13.1.0/bits/new_allocator.h:168: 	_GLIBCXX_OPERATOR_DELETE(_GLIBCXX_SIZED_DEALLOC(__p, __n));
	jmp	_ZdlPvy	 #
	.seh_endproc
	.section	.text$_ZNSt23_Sp_counted_ptr_inplaceINSt13__future_base17_Async_state_implINSt6thread8_InvokerISt5tupleIJPFviPK8BoidListPK7BoidMapEiPS5_PS8_EEEEvEESaIvELN9__gnu_cxx12_Lock_policyE2EE10_M_destroyEv,"x"
	.linkonce discard
	.align 2
	.p2align 4
	.globl	_ZNSt23_Sp_counted_ptr_inplaceINSt13__future_base17_Async_state_implINSt6thread8_InvokerISt5tupleIJPFviPK8BoidListPK7BoidMapEiPS5_PS8_EEEEvEESaIvELN9__gnu_cxx12_Lock_policyE2EE10_M_destroyEv
	.def	_ZNSt23_Sp_counted_ptr_inplaceINSt13__future_base17_Async_state_implINSt6thread8_InvokerISt5tupleIJPFviPK8BoidListPK7BoidMapEiPS5_PS8_EEEEvEESaIvELN9__gnu_cxx12_Lock_policyE2EE10_M_destroyEv;	.scl	2;	.type	32;	.endef
	.seh_proc	_ZNSt23_Sp_counted_ptr_inplaceINSt13__future_base17_Async_state_implINSt6thread8_InvokerISt5tupleIJPFviPK8BoidListPK7BoidMapEiPS5_PS8_EEEEvEESaIvELN9__gnu_cxx12_Lock_policyE2EE10_M_destroyEv
_ZNSt23_Sp_counted_ptr_inplaceINSt13__future_base17_Async_state_implINSt6thread8_InvokerISt5tupleIJPFviPK8BoidListPK7BoidMapEiPS5_PS8_EEEEvEESaIvELN9__gnu_cxx12_Lock_policyE2EE10_M_destroyEv:
.LFB14973:
	.seh_endprologue
 # C:/msys64/ucrt64/include/c++/13.1.0/bits/new_allocator.h:168: 	_GLIBCXX_OPERATOR_DELETE(_GLIBCXX_SIZED_DEALLOC(__p, __n));
	movl	$120, %edx	 #,
 # C:/msys64/ucrt64/include/c++/13.1.0/bits/shared_ptr_base.h:623:       }
 # C:/msys64/ucrt64/include/c++/13.1.0/bits/new_allocator.h:168: 	_GLIBCXX_OPERATOR_DELETE(_GLIBCXX_SIZED_DEALLOC(__p, __n));
	jmp	_ZdlPvy	 #
	.seh_endproc
	.section	.text$_ZNSt23_Sp_counted_ptr_inplaceINSt13__future_base15_Deferred_stateINSt6thread8_InvokerISt5tupleIJPFviPK8BoidListPK7BoidMapEiPS5_PS8_EEEEvEESaIvELN9__gnu_cxx12_Lock_policyE2EE10_M_destroyEv,"x"
	.linkonce discard
	.align 2
	.p2align 4
	.globl	_ZNSt23_Sp_counted_ptr_inplaceINSt13__future_base15_Deferred_stateINSt6thread8_InvokerISt5tupleIJPFviPK8BoidListPK7BoidMapEiPS5_PS8_EEEEvEESaIvELN9__gnu_cxx12_Lock_policyE2EE10_M_destroyEv
	.def	_ZNSt23_Sp_counted_ptr_inplaceINSt13__future_base15_Deferred_stateINSt6thread8_InvokerISt5tupleIJPFviPK8BoidListPK7BoidMapEiPS5_PS8_EEEEvEESaIvELN9__gnu_cxx12_Lock_policyE2EE10_M_destroyEv;	.scl	2;	.type	32;	.endef
	.seh_proc	_ZNSt23_Sp_counted_ptr_inplaceINSt13__future_base15_Deferred_stateINSt6thread8_InvokerISt5tupleIJPFviPK8BoidListPK7BoidMapEiPS5_PS8_EEEEvEESaIvELN9__gnu_cxx12_Lock_policyE2EE10_M_destroyEv
_ZNSt23_Sp_counted_ptr_inplaceINSt13__future_base15_Deferred_stateINSt6thread8_InvokerISt5tupleIJPFviPK8BoidListPK7BoidMapEiPS5_PS8_EEEEvEESaIvELN9__gnu_cxx12_Lock_policyE2EE10_M_destroyEv:
.LFB14966:
	.seh_endprologue
 # C:/msys64/ucrt64/include/c++/13.1.0/bits/new_allocator.h:168: 	_GLIBCXX_OPERATOR_DELETE(_GLIBCXX_SIZED_DEALLOC(__p, __n));
	movl	$104, %edx	 #,
 # C:/msys64/ucrt64/include/c++/13.1.0/bits/shared_ptr_base.h:623:       }
 # C:/msys64/ucrt64/include/c++/13.1.0/bits/new_allocator.h:168: 	_GLIBCXX_OPERATOR_DELETE(_GLIBCXX_SIZED_DEALLOC(__p, __n));
	jmp	_ZdlPvy	 #
	.seh_endproc
	.section	.text$_ZNSt13__future_base13_State_baseV2D1Ev,"x"
	.linkonce discard
	.align 2
	.p2align 4
	.globl	_ZNSt13__future_base13_State_baseV2D1Ev
	.def	_ZNSt13__future_base13_State_baseV2D1Ev;	.scl	2;	.type	32;	.endef
	.seh_proc	_ZNSt13__future_base13_State_baseV2D1Ev
_ZNSt13__future_base13_State_baseV2D1Ev:
.LFB14608:
	pushq	%rbx	 #
	.seh_pushreg	%rbx
	subq	$32, %rsp	 #,
	.seh_stackalloc	32
	.seh_endprologue
 # C:/msys64/ucrt64/include/c++/13.1.0/future:344:       virtual ~_State_baseV2() = default;
	leaq	16+_ZTVNSt13__future_base13_State_baseV2E(%rip), %rax	 #, tmp99
	movq	%rax, (%rcx)	 # tmp99, this_2(D)->_vptr._State_baseV2
	movq	%rcx, %rbx	 # tmp97, this
 # C:/msys64/ucrt64/include/c++/13.1.0/bits/atomic_futex.h:288:   class __atomic_futex_unsigned
	leaq	32(%rcx), %rcx	 #, tmp92
	call	_ZNSt18condition_variableD1Ev	 #
 # C:/msys64/ucrt64/include/c++/13.1.0/bits/std_mutex.h:77:     ~__mutex_base() noexcept { __gthread_mutex_destroy(&_M_mutex); }
	leaq	24(%rbx), %rcx	 #, tmp93
 # C:/msys64/ucrt64/include/c++/13.1.0/x86_64-w64-mingw32/bits/gthr-default.h:740:     return __gthrw_(pthread_mutex_destroy) (__mutex);
	call	pthread_mutex_destroy	 #
 # C:/msys64/ucrt64/include/c++/13.1.0/bits/unique_ptr.h:403: 	if (__ptr != nullptr)
	movq	8(%rbx), %rcx	 # MEM[(struct _Result_base * &)this_2(D) + 8], _5
 # C:/msys64/ucrt64/include/c++/13.1.0/bits/unique_ptr.h:403: 	if (__ptr != nullptr)
	testq	%rcx, %rcx	 # _5
	je	.L134	 #,
 # C:/msys64/ucrt64/include/c++/13.1.0/future:229: 	void operator()(_Result_base* __fr) const { __fr->_M_destroy(); }
	movq	(%rcx), %rax	 # _5->_vptr._Result_base, _6
	leaq	_ZNSt13__future_base7_ResultIvE10_M_destroyEv(%rip), %r8	 #, tmp95
	movq	(%rax), %rdx	 # *_6, _7
	cmpq	%r8, %rdx	 # tmp95, _7
	jne	.L130	 #,
 # C:/msys64/ucrt64/include/c++/13.1.0/future:672:       void _M_destroy() { delete this; }
	movq	16(%rax), %rax	 # MEM[(int (*) () *)_6 + 16B], MEM[(int (*) () *)_6 + 16B]
 # C:/msys64/ucrt64/include/c++/13.1.0/future:344:       virtual ~_State_baseV2() = default;
	addq	$32, %rsp	 #,
	popq	%rbx	 #
 # C:/msys64/ucrt64/include/c++/13.1.0/future:672:       void _M_destroy() { delete this; }
	rex.W jmp	*%rax	 # MEM[(int (*) () *)_6 + 16B]
	.p2align 4,,10
	.p2align 3
.L130:
 # C:/msys64/ucrt64/include/c++/13.1.0/future:229: 	void operator()(_Result_base* __fr) const { __fr->_M_destroy(); }
	call	*%rdx	 # _7
	nop	
.L134:
 # C:/msys64/ucrt64/include/c++/13.1.0/future:344:       virtual ~_State_baseV2() = default;
	addq	$32, %rsp	 #,
	popq	%rbx	 #
	ret	
	.seh_handler	__gxx_personality_seh0, @unwind, @except
	.seh_handlerdata
.LLSDA14608:
	.byte	0xff
	.byte	0xff
	.byte	0x1
	.uleb128 .LLSDACSE14608-.LLSDACSB14608
.LLSDACSB14608:
.LLSDACSE14608:
	.section	.text$_ZNSt13__future_base13_State_baseV2D1Ev,"x"
	.linkonce discard
	.seh_endproc
	.section	.text$_ZNSt13__future_base13_State_baseV2D0Ev,"x"
	.linkonce discard
	.align 2
	.p2align 4
	.globl	_ZNSt13__future_base13_State_baseV2D0Ev
	.def	_ZNSt13__future_base13_State_baseV2D0Ev;	.scl	2;	.type	32;	.endef
	.seh_proc	_ZNSt13__future_base13_State_baseV2D0Ev
_ZNSt13__future_base13_State_baseV2D0Ev:
.LFB14609:
	pushq	%rbx	 #
	.seh_pushreg	%rbx
	subq	$32, %rsp	 #,
	.seh_stackalloc	32
	.seh_endprologue
 # C:/msys64/ucrt64/include/c++/13.1.0/future:344:       virtual ~_State_baseV2() = default;
	leaq	16+_ZTVNSt13__future_base13_State_baseV2E(%rip), %rax	 #, tmp99
	movq	%rax, (%rcx)	 # tmp99, this_2(D)->_vptr._State_baseV2
	movq	%rcx, %rbx	 # tmp97, this
 # C:/msys64/ucrt64/include/c++/13.1.0/bits/atomic_futex.h:288:   class __atomic_futex_unsigned
	leaq	32(%rcx), %rcx	 #, tmp92
	call	_ZNSt18condition_variableD1Ev	 #
 # C:/msys64/ucrt64/include/c++/13.1.0/bits/std_mutex.h:77:     ~__mutex_base() noexcept { __gthread_mutex_destroy(&_M_mutex); }
	leaq	24(%rbx), %rcx	 #, tmp93
 # C:/msys64/ucrt64/include/c++/13.1.0/x86_64-w64-mingw32/bits/gthr-default.h:740:     return __gthrw_(pthread_mutex_destroy) (__mutex);
	call	pthread_mutex_destroy	 #
 # C:/msys64/ucrt64/include/c++/13.1.0/bits/unique_ptr.h:403: 	if (__ptr != nullptr)
	movq	8(%rbx), %rcx	 # MEM[(struct _Result_base * &)this_2(D) + 8], _7
 # C:/msys64/ucrt64/include/c++/13.1.0/bits/unique_ptr.h:403: 	if (__ptr != nullptr)
	testq	%rcx, %rcx	 # _7
	je	.L136	 #,
 # C:/msys64/ucrt64/include/c++/13.1.0/future:229: 	void operator()(_Result_base* __fr) const { __fr->_M_destroy(); }
	movq	(%rcx), %rax	 # _7->_vptr._Result_base, _8
	leaq	_ZNSt13__future_base7_ResultIvE10_M_destroyEv(%rip), %r8	 #, tmp95
	movq	(%rax), %rdx	 # *_8, _9
	cmpq	%r8, %rdx	 # tmp95, _9
	jne	.L137	 #,
 # C:/msys64/ucrt64/include/c++/13.1.0/future:672:       void _M_destroy() { delete this; }
	call	*16(%rax)	 # MEM[(int (*) () *)_8 + 16B]
.L136:
 # C:/msys64/ucrt64/include/c++/13.1.0/future:344:       virtual ~_State_baseV2() = default;
	movl	$48, %edx	 #,
	movq	%rbx, %rcx	 # this,
 # C:/msys64/ucrt64/include/c++/13.1.0/future:344:       virtual ~_State_baseV2() = default;
	addq	$32, %rsp	 #,
	popq	%rbx	 #
 # C:/msys64/ucrt64/include/c++/13.1.0/future:344:       virtual ~_State_baseV2() = default;
	jmp	_ZdlPvy	 #
	.p2align 4,,10
	.p2align 3
.L137:
 # C:/msys64/ucrt64/include/c++/13.1.0/future:229: 	void operator()(_Result_base* __fr) const { __fr->_M_destroy(); }
	call	*%rdx	 # _9
	jmp	.L136	 #
	.seh_handler	__gxx_personality_seh0, @unwind, @except
	.seh_handlerdata
.LLSDA14609:
	.byte	0xff
	.byte	0xff
	.byte	0x1
	.uleb128 .LLSDACSE14609-.LLSDACSB14609
.LLSDACSB14609:
.LLSDACSE14609:
	.section	.text$_ZNSt13__future_base13_State_baseV2D0Ev,"x"
	.linkonce discard
	.seh_endproc
	.section	.text$_ZNSt13__future_base13_State_baseV29_M_do_setEPSt8functionIFSt10unique_ptrINS_12_Result_baseENS3_8_DeleterEEvEEPb,"x"
	.linkonce discard
	.align 2
	.p2align 4
	.globl	_ZNSt13__future_base13_State_baseV29_M_do_setEPSt8functionIFSt10unique_ptrINS_12_Result_baseENS3_8_DeleterEEvEEPb
	.def	_ZNSt13__future_base13_State_baseV29_M_do_setEPSt8functionIFSt10unique_ptrINS_12_Result_baseENS3_8_DeleterEEvEEPb;	.scl	2;	.type	32;	.endef
	.seh_proc	_ZNSt13__future_base13_State_baseV29_M_do_setEPSt8functionIFSt10unique_ptrINS_12_Result_baseENS3_8_DeleterEEvEEPb
_ZNSt13__future_base13_State_baseV29_M_do_setEPSt8functionIFSt10unique_ptrINS_12_Result_baseENS3_8_DeleterEEvEEPb:
.LFB11718:
	pushq	%rsi	 #
	.seh_pushreg	%rsi
	pushq	%rbx	 #
	.seh_pushreg	%rbx
	subq	$56, %rsp	 #,
	.seh_stackalloc	56
	.seh_endprologue
 # C:/msys64/ucrt64/include/c++/13.1.0/bits/std_function.h:589: 	if (_M_empty())
	cmpq	$0, 16(%rdx)	 #, MEM[(const struct _Function_base *)__f_2(D)]._M_manager
 # C:/msys64/ucrt64/include/c++/13.1.0/future:587:       _M_do_set(function<_Ptr_type()>* __f, bool* __did_set)
	movq	%rcx, %rbx	 # tmp100, this
	movq	%r8, %rsi	 # tmp102, __did_set
 # C:/msys64/ucrt64/include/c++/13.1.0/bits/std_function.h:589: 	if (_M_empty())
	je	.L149	 #,
 # C:/msys64/ucrt64/include/c++/13.1.0/bits/std_function.h:591: 	return _M_invoker(_M_functor, std::forward<_ArgTypes>(__args)...);
	leaq	40(%rsp), %rcx	 #, tmp94
.LEHB8:
	call	*24(%rdx)	 # MEM[(const struct function *)__f_2(D)]._M_invoker
.LEHE8:
 # C:/msys64/ucrt64/include/c++/13.1.0/bits/move.h:204:       _Tp __tmp = _GLIBCXX_MOVE(__a);
	movq	8(%rbx), %rcx	 # MEM[(struct _Result_base * &)this_5(D) + 8], _12
 # C:/msys64/ucrt64/include/c++/13.1.0/bits/move.h:205:       __a = _GLIBCXX_MOVE(__b);
	movq	40(%rsp), %rax	 # MEM[(struct _Result_base * &)&__res], MEM[(struct _Result_base * &)&__res]
 # C:/msys64/ucrt64/include/c++/13.1.0/future:593: 	*__did_set = true;
	movb	$1, (%rsi)	 #, *__did_set_3(D)
 # C:/msys64/ucrt64/include/c++/13.1.0/bits/move.h:206:       __b = _GLIBCXX_MOVE(__tmp);
	movq	%rcx, 40(%rsp)	 # _12, MEM[(struct _Result_base * &)&__res]
 # C:/msys64/ucrt64/include/c++/13.1.0/bits/move.h:205:       __a = _GLIBCXX_MOVE(__b);
	movq	%rax, 8(%rbx)	 # MEM[(struct _Result_base * &)&__res], MEM[(struct _Result_base * &)this_5(D) + 8]
 # C:/msys64/ucrt64/include/c++/13.1.0/bits/unique_ptr.h:403: 	if (__ptr != nullptr)
	testq	%rcx, %rcx	 # _12
	je	.L148	 #,
 # C:/msys64/ucrt64/include/c++/13.1.0/future:229: 	void operator()(_Result_base* __fr) const { __fr->_M_destroy(); }
	movq	(%rcx), %rax	 # _12->_vptr._Result_base, _10
	leaq	_ZNSt13__future_base7_ResultIvE10_M_destroyEv(%rip), %r8	 #, tmp98
	movq	(%rax), %rdx	 # *_10, _11
	cmpq	%r8, %rdx	 # tmp98, _11
	jne	.L144	 #,
 # C:/msys64/ucrt64/include/c++/13.1.0/future:672:       void _M_destroy() { delete this; }
	call	*16(%rax)	 # MEM[(int (*) () *)_10 + 16B]
	nop	
.L148:
 # C:/msys64/ucrt64/include/c++/13.1.0/future:595:       }
	addq	$56, %rsp	 #,
	popq	%rbx	 #
	popq	%rsi	 #
	ret	
	.p2align 4,,10
	.p2align 3
.L144:
 # C:/msys64/ucrt64/include/c++/13.1.0/future:229: 	void operator()(_Result_base* __fr) const { __fr->_M_destroy(); }
	call	*%rdx	 # _11
	nop	
 # C:/msys64/ucrt64/include/c++/13.1.0/future:595:       }
	addq	$56, %rsp	 #,
	popq	%rbx	 #
	popq	%rsi	 #
	ret	
.L149:
.LEHB9:
 # C:/msys64/ucrt64/include/c++/13.1.0/bits/std_function.h:590: 	  __throw_bad_function_call();
	call	_ZSt25__throw_bad_function_callv	 #
	nop	
.LEHE9:
	.seh_handler	__gxx_personality_seh0, @unwind, @except
	.seh_handlerdata
.LLSDA11718:
	.byte	0xff
	.byte	0xff
	.byte	0x1
	.uleb128 .LLSDACSE11718-.LLSDACSB11718
.LLSDACSB11718:
	.uleb128 .LEHB8-.LFB11718
	.uleb128 .LEHE8-.LEHB8
	.uleb128 0
	.uleb128 0
	.uleb128 .LEHB9-.LFB11718
	.uleb128 .LEHE9-.LEHB9
	.uleb128 0
	.uleb128 0
.LLSDACSE11718:
	.section	.text$_ZNSt13__future_base13_State_baseV29_M_do_setEPSt8functionIFSt10unique_ptrINS_12_Result_baseENS3_8_DeleterEEvEEPb,"x"
	.linkonce discard
	.seh_endproc
	.text
	.p2align 4
	.def	__tcf_0;	.scl	3;	.type	32;	.endef
	.seh_proc	__tcf_0
__tcf_0:
.LFB14944:
	subq	$40, %rsp	 #,
	.seh_stackalloc	40
	.seh_endprologue
 # C:/msys64/ucrt64/include/c++/13.1.0/fstream:870:       { }
	movq	.refptr._ZTVSt14basic_ofstreamIcSt11char_traitsIcEE(%rip), %rax	 #, tmp92
 # C:/msys64/ucrt64/include/c++/13.1.0/fstream:256: 	  { this->close(); }
	leaq	8+myfile(%rip), %rcx	 #, tmp100
 # C:/msys64/ucrt64/include/c++/13.1.0/fstream:870:       { }
	leaq	64(%rax), %rdx	 #, tmp93
	addq	$24, %rax	 #, tmp98
	movq	%rdx, 216+myfile(%rip)	 # tmp93, MEM[(struct basic_ios *)&myfile + 216B].D.49179._vptr.ios_base
	movq	.refptr._ZTVSt13basic_filebufIcSt11char_traitsIcEE(%rip), %rdx	 #, tmp119
	vmovq	%rax, %xmm1	 # tmp98, tmp98
	addq	$16, %rdx	 #, tmp96
	vpinsrq	$1, %rdx, %xmm1, %xmm0	 # tmp96, tmp98, tmp95
	vmovdqu	%xmm0, myfile(%rip)	 # tmp95, MEM <vector(2) long long unsigned int> [(int (*) () * *)&myfile]
.LEHB10:
 # C:/msys64/ucrt64/include/c++/13.1.0/fstream:256: 	  { this->close(); }
	call	_ZNSt13basic_filebufIcSt11char_traitsIcEE5closeEv	 #
.LEHE10:
.L152:
 # C:/msys64/ucrt64/include/c++/13.1.0/fstream:259:       }
	leaq	80+myfile(%rip), %rcx	 #, tmp101
	call	_ZNSt12__basic_fileIcED1Ev	 #
 # C:/msys64/ucrt64/include/c++/13.1.0/streambuf:205:       { }
	movq	.refptr._ZTVSt15basic_streambufIcSt11char_traitsIcEE(%rip), %rax	 #, tmp121
	leaq	64+myfile(%rip), %rcx	 #, tmp105
	addq	$16, %rax	 #, tmp104
	movq	%rax, 8+myfile(%rip)	 # tmp104, MEM[(struct basic_streambuf *)&myfile + 8B]._vptr.basic_streambuf
	call	_ZNSt6localeD1Ev	 #
 # C:/msys64/ucrt64/include/c++/13.1.0/ostream:95:       ~basic_ostream() { }
	movq	.refptr._ZTTSt14basic_ofstreamIcSt11char_traitsIcEE(%rip), %rax	 #, tmp106
	movq	8(%rax), %rdx	 # MEM[(const void * *)&_ZTTSt14basic_ofstreamIcSt11char_traitsIcEE + 8B], _5
	movq	16(%rax), %rcx	 # MEM[(const void * *)&_ZTTSt14basic_ofstreamIcSt11char_traitsIcEE + 16B], MEM[(const void * *)&_ZTTSt14basic_ofstreamIcSt11char_traitsIcEE + 16B]
	leaq	myfile(%rip), %rax	 #, tmp102
	movq	%rdx, myfile(%rip)	 # _5, MEM[(struct basic_ostream *)&myfile]._vptr.basic_ostream
	movq	-24(%rdx), %rdx	 # MEM[(long long int *)_5 + -24B], MEM[(long long int *)_5 + -24B]
	movq	%rcx, (%rax,%rdx)	 # MEM[(const void * *)&_ZTTSt14basic_ofstreamIcSt11char_traitsIcEE + 16B], MEM[(struct basic_ios *)_8].D.49179._vptr.ios_base
 # C:/msys64/ucrt64/include/c++/13.1.0/bits/basic_ios.h:282:       ~basic_ios() { }
	movq	.refptr._ZTVSt9basic_iosIcSt11char_traitsIcEE(%rip), %rax	 #, tmp122
	leaq	216+myfile(%rip), %rcx	 #, tmp115
	addq	$16, %rax	 #, tmp114
	movq	%rax, 216+myfile(%rip)	 # tmp114, MEM[(struct basic_ios *)&myfile + 216B].D.49179._vptr.ios_base
 # .\src\main.cpp:31: std::ofstream myfile;
	addq	$40, %rsp	 #,
 # C:/msys64/ucrt64/include/c++/13.1.0/bits/basic_ios.h:282:       ~basic_ios() { }
	jmp	_ZNSt8ios_baseD2Ev	 #
.L153:
 # C:/msys64/ucrt64/include/c++/13.1.0/fstream:257: 	__catch(...)
	movq	%rax, %rcx	 # tmp117, tmp116
	vzeroupper
	call	__cxa_begin_catch	 #
 # C:/msys64/ucrt64/include/c++/13.1.0/fstream:257: 	__catch(...)
	call	__cxa_end_catch	 #
	jmp	.L152	 #
	.seh_handler	__gxx_personality_seh0, @unwind, @except
	.seh_handlerdata
	.align 4
.LLSDA14944:
	.byte	0xff
	.byte	0x9b
	.uleb128 .LLSDATT14944-.LLSDATTD14944
.LLSDATTD14944:
	.byte	0x1
	.uleb128 .LLSDACSE14944-.LLSDACSB14944
.LLSDACSB14944:
	.uleb128 .LEHB10-.LFB14944
	.uleb128 .LEHE10-.LEHB10
	.uleb128 .L153-.LFB14944
	.uleb128 0x1
.LLSDACSE14944:
	.byte	0x1
	.byte	0
	.align 4
	.long	0

.LLSDATT14944:
	.text
	.seh_endproc
	.p2align 4
	.globl	_Z14block_populateiPK8BoidListPK7BoidMap
	.def	_Z14block_populateiPK8BoidListPK7BoidMap;	.scl	2;	.type	32;	.endef
	.seh_proc	_Z14block_populateiPK8BoidListPK7BoidMap
_Z14block_populateiPK8BoidListPK7BoidMap:
.LFB12587:
	pushq	%r14	 #
	.seh_pushreg	%r14
	pushq	%r13	 #
	.seh_pushreg	%r13
	pushq	%r12	 #
	.seh_pushreg	%r12
	pushq	%rbp	 #
	.seh_pushreg	%rbp
	pushq	%rdi	 #
	.seh_pushreg	%rdi
	pushq	%rsi	 #
	.seh_pushreg	%rsi
	pushq	%rbx	 #
	.seh_pushreg	%rbx
	subq	$32, %rsp	 #,
	.seh_stackalloc	32
	.seh_endprologue
 # .\src\main.cpp:229: void block_populate(int thread_start_pos, const BoidList *boid_list, const BoidMap *boid_map) {
	movslq	%ecx, %rbx	 # tmp172,
 # .\src\main.cpp:233:     auto t = thread_start_pos == ((NUM_THREADS - 1) * (boid_list->m_size / NUM_THREADS));
	movl	16(%rdx), %ecx	 # boid_list_21(D)->m_size, _4
 # .\src\main.cpp:229: void block_populate(int thread_start_pos, const BoidList *boid_list, const BoidMap *boid_map) {
	movq	%r8, %r13	 # tmp174, boid_map
 # .\src\main.cpp:233:     auto t = thread_start_pos == ((NUM_THREADS - 1) * (boid_list->m_size / NUM_THREADS));
	movl	_ZL11num_threads(%rip), %r8d	 # num_threads, num_threads.29_1
 # .\src\main.cpp:229: void block_populate(int thread_start_pos, const BoidList *boid_list, const BoidMap *boid_map) {
	movq	%rdx, %r12	 # tmp173, boid_list
 # .\src\main.cpp:233:     auto t = thread_start_pos == ((NUM_THREADS - 1) * (boid_list->m_size / NUM_THREADS));
	xorl	%edx, %edx	 # tmp143
 # .\src\main.cpp:229: void block_populate(int thread_start_pos, const BoidList *boid_list, const BoidMap *boid_map) {
	movq	%rbx, %rsi	 #,
 # .\src\main.cpp:233:     auto t = thread_start_pos == ((NUM_THREADS - 1) * (boid_list->m_size / NUM_THREADS));
	movl	%ecx, %eax	 # _4, tmp142
	divl	%r8d	 # num_threads.29_1
 # .\src\main.cpp:233:     auto t = thread_start_pos == ((NUM_THREADS - 1) * (boid_list->m_size / NUM_THREADS));
	subl	$1, %r8d	 #, tmp144
 # .\src\main.cpp:233:     auto t = thread_start_pos == ((NUM_THREADS - 1) * (boid_list->m_size / NUM_THREADS));
	imull	%eax, %r8d	 # tmp142, tmp145
 # .\src\main.cpp:233:     auto t = thread_start_pos == ((NUM_THREADS - 1) * (boid_list->m_size / NUM_THREADS));
	cmpl	%ebx, %r8d	 # thread_start_pos, tmp145
	sete	%dl	 #, tmp146
	subl	%ebx, %ecx	 # thread_start_pos, _76
 # .\src\main.cpp:234:     auto correction = boid_list->m_size - (thread_start_pos + (boid_list->m_size / NUM_THREADS));
	movl	%ecx, %edi	 # _76, correction
	subl	%eax, %edi	 # tmp142, correction
 # .\src\main.cpp:236:     for (int i = 0; i < (boid_list->m_size) / NUM_THREADS + correction * t; i++) {
	testb	%dl, %dl	 # tmp146
	movl	$0, %edx	 #, tmp148
 # .\src\main.cpp:236:     for (int i = 0; i < (boid_list->m_size) / NUM_THREADS + correction * t; i++) {
	cmove	%eax, %ecx	 # _76,, tmp142, tmp149
 # .\src\main.cpp:236:     for (int i = 0; i < (boid_list->m_size) / NUM_THREADS + correction * t; i++) {
	cmove	%edx, %edi	 # correction,, tmp148, _78
	salq	$2, %rbx	 #, ivtmp.1472
 # .\src\main.cpp:236:     for (int i = 0; i < (boid_list->m_size) / NUM_THREADS + correction * t; i++) {
	xorl	%ebp, %ebp	 # i
 # .\src\main.cpp:236:     for (int i = 0; i < (boid_list->m_size) / NUM_THREADS + correction * t; i++) {
	testl	%ecx, %ecx	 # tmp149
	je	.L165	 #,
	.p2align 4,,10
	.p2align 3
.L158:
 # .\src\main.cpp:215:     Boid map_pos = map.get_map_pos_nearest(boid_list.m_boid_store->xs[boid_to_place], boid_list.m_boid_store->ys[boid_to_place]);
	movq	(%r12), %rax	 # boid_list_21(D)->m_boid_store, _28
 # .\src\main.cpp:237:         place_boid(*boid_map, *boid_list, thread_start_pos + i);
	leal	0(%rbp,%rsi), %r14d	 #, _9
 # .\src\main.cpp:215:     Boid map_pos = map.get_map_pos_nearest(boid_list.m_boid_store->xs[boid_to_place], boid_list.m_boid_store->ys[boid_to_place]);
	movq	8(%rax), %rcx	 # _28->ys, _28->ys
 # .\src\main.cpp:215:     Boid map_pos = map.get_map_pos_nearest(boid_list.m_boid_store->xs[boid_to_place], boid_list.m_boid_store->ys[boid_to_place]);
	movq	(%rax), %rax	 # _28->xs, _28->xs
 # .\src\main.cpp:215:     Boid map_pos = map.get_map_pos_nearest(boid_list.m_boid_store->xs[boid_to_place], boid_list.m_boid_store->ys[boid_to_place]);
	vcvttss2sil	(%rcx,%rbx), %r8d	 # *_32,
	movq	%r13, %rcx	 # boid_map,
	vcvttss2sil	(%rax,%rbx), %edx	 # *_36, tmp155
	call	_ZNK7BoidMap19get_map_pos_nearestEii	 #
 # .\src\main.cpp:219:     map.safety[map_pos].lock();
	cltq
 # .\src\main.cpp:219:     map.safety[map_pos].lock();
	leaq	0(,%rax,4), %rdx	 #, _42
 # .\src\main.cpp:219:     map.safety[map_pos].lock();
	movq	32(%r13), %rax	 # boid_map_25(D)->safety, _43
	addq	%rdx, %rax	 # _42, _43
	.p2align 4,,10
	.p2align 3
.L156:
 # C:/msys64/ucrt64/include/psdk_inc/intrin-impl.h:1800: __buildbittesti(_interlockedbittestandset, __LONG32, "lock bts{l %[Offset],%[Base] | %[Base],%[Offset]}" __FLAGSET, "I")
/APP
 # 1800 "C:/msys64/ucrt64/include/psdk_inc/intrin-impl.h" 1
	lock btsl $0,(%rax) 	 #, MEM[(volatile long int *)_44]
 # 0 "" 2
 # .\src\.\task_master\lock.h:40:         while (_interlockedbittestandset(&lock_internal, 0)) {}
/NO_APP
	jc	.L156	 #,
 # .\src\main.cpp:220:         Boid old_head = map.m_boid_map[map_pos];
	movq	16(%r13), %rcx	 # boid_map_25(D)->m_boid_map, _47
	addq	%rdx, %rcx	 # _42, _47
 # .\src\main.cpp:220:         Boid old_head = map.m_boid_map[map_pos];
	movslq	(%rcx), %rax	 # *_47,
 # .\src\main.cpp:221:         map.m_boid_map[map_pos] = boid_to_place;
	movl	%r14d, (%rcx)	 # _9, *_47
 # .\src\main.cpp:222:         boid_list.m_boid_store->index_next[boid_to_place] = old_head;
	movq	(%r12), %rcx	 # boid_list_21(D)->m_boid_store, _49
 # .\src\main.cpp:222:         boid_list.m_boid_store->index_next[boid_to_place] = old_head;
	movq	32(%rcx), %r8	 # _49->index_next, _49->index_next
	movl	%eax, (%r8,%rbx)	 # old_head, *_51
 # .\src\main.cpp:223:         boid_list.m_boid_store->depth[boid_to_place] = (old_head != -1) ? boid_list.m_boid_store->depth[old_head] + 1 : 1;
	movq	48(%rcx), %r8	 # _49->depth, pretmp_96
 # .\src\main.cpp:223:         boid_list.m_boid_store->depth[boid_to_place] = (old_head != -1) ? boid_list.m_boid_store->depth[old_head] + 1 : 1;
	movl	$1, %ecx	 #, iftmp.36_57
 # .\src\main.cpp:223:         boid_list.m_boid_store->depth[boid_to_place] = (old_head != -1) ? boid_list.m_boid_store->depth[old_head] + 1 : 1;
	cmpl	$-1, %eax	 #, old_head
	je	.L157	 #,
 # .\src\main.cpp:223:         boid_list.m_boid_store->depth[boid_to_place] = (old_head != -1) ? boid_list.m_boid_store->depth[old_head] + 1 : 1;
	movl	(%r8,%rax,4), %ecx	 # *_55, *_55
	addl	$1, %ecx	 #, iftmp.36_57
.L157:
 # .\src\main.cpp:224:     map.safety[map_pos].unlock();
	movq	32(%r13), %rax	 # boid_map_25(D)->safety, _42
 # .\src\main.cpp:223:         boid_list.m_boid_store->depth[boid_to_place] = (old_head != -1) ? boid_list.m_boid_store->depth[old_head] + 1 : 1;
	movl	%ecx, (%r8,%rbx)	 # iftmp.36_57, *_59
 # .\src\main.cpp:224:     map.safety[map_pos].unlock();
	addq	%rdx, %rax	 # _42, _42
 # C:/msys64/ucrt64/include/psdk_inc/intrin-impl.h:1809: __buildbittesti(_interlockedbittestandreset, __LONG32, "lock btr{l %[Offset],%[Base] | %[Base],%[Offset]}" __FLAGSET, "I")
/APP
 # 1809 "C:/msys64/ucrt64/include/psdk_inc/intrin-impl.h" 1
	lock btrl $0,(%rax) 	 #, MEM[(volatile long int *)_63]
 # 0 "" 2
 # .\src\main.cpp:236:     for (int i = 0; i < (boid_list->m_size) / NUM_THREADS + correction * t; i++) {
/NO_APP
	movl	16(%r12), %eax	 # boid_list_21(D)->m_size, boid_list_21(D)->m_size
	xorl	%edx, %edx	 # tmp168
 # .\src\main.cpp:236:     for (int i = 0; i < (boid_list->m_size) / NUM_THREADS + correction * t; i++) {
	addl	$1, %ebp	 #, i
 # .\src\main.cpp:236:     for (int i = 0; i < (boid_list->m_size) / NUM_THREADS + correction * t; i++) {
	addq	$4, %rbx	 #, ivtmp.1472
 # .\src\main.cpp:236:     for (int i = 0; i < (boid_list->m_size) / NUM_THREADS + correction * t; i++) {
	divl	_ZL11num_threads(%rip)	 # num_threads
 # .\src\main.cpp:236:     for (int i = 0; i < (boid_list->m_size) / NUM_THREADS + correction * t; i++) {
	addl	%edi, %eax	 # _78, tmp170
 # .\src\main.cpp:236:     for (int i = 0; i < (boid_list->m_size) / NUM_THREADS + correction * t; i++) {
	cmpl	%eax, %ebp	 # tmp170, i
	jb	.L158	 #,
.L165:
 # .\src\main.cpp:239: }
	addq	$32, %rsp	 #,
	popq	%rbx	 #
	popq	%rsi	 #
	popq	%rdi	 #
	popq	%rbp	 #
	popq	%r12	 #
	popq	%r13	 #
	popq	%r14	 #
	ret	
	.seh_endproc
	.p2align 4
	.def	_ZZZ13update_boids2RK7BoidMapP15row_runner_argsP10TaskMasterP8TaskSyncENKUlS5_P4TaskE_clES5_S9_ENUlS5_S9_E_4_FUNES5_S9_;	.scl	3;	.type	32;	.endef
	.seh_proc	_ZZZ13update_boids2RK7BoidMapP15row_runner_argsP10TaskMasterP8TaskSyncENKUlS5_P4TaskE_clES5_S9_ENUlS5_S9_E_4_FUNES5_S9_
_ZZZ13update_boids2RK7BoidMapP15row_runner_argsP10TaskMasterP8TaskSyncENKUlS5_P4TaskE_clES5_S9_ENUlS5_S9_E_4_FUNES5_S9_:
.LFB12624:
	pushq	%r15	 #
	.seh_pushreg	%r15
	pushq	%r14	 #
	.seh_pushreg	%r14
	pushq	%r13	 #
	.seh_pushreg	%r13
	pushq	%r12	 #
	.seh_pushreg	%r12
	pushq	%rbp	 #
	.seh_pushreg	%rbp
	pushq	%rdi	 #
	.seh_pushreg	%rdi
	pushq	%rsi	 #
	.seh_pushreg	%rsi
	pushq	%rbx	 #
	.seh_pushreg	%rbx
	subq	$120, %rsp	 #,
	.seh_stackalloc	120
	vmovups	%xmm6, 48(%rsp)	 #,
	.seh_savexmm	%xmm6, 48
	vmovups	%xmm7, 64(%rsp)	 #,
	.seh_savexmm	%xmm7, 64
	vmovups	%xmm8, 80(%rsp)	 #,
	.seh_savexmm	%xmm8, 80
	vmovups	%xmm9, 96(%rsp)	 #,
	.seh_savexmm	%xmm9, 96
	.seh_endprologue
	movq	8(%rdx), %rax	 # MEM[(void * *)_3(D) + 8B], _5
 # .\src\main.cpp:1229:                                     update_non_interacting2(old_args->boid_map, old_args->rules, old_args->boid_list);
	movq	32(%rax), %rdx	 # MEM[(struct row_runner_args *)_5].boid_list, _7
 # .\src\main.cpp:1229:                                     update_non_interacting2(old_args->boid_map, old_args->rules, old_args->boid_list);
	movq	(%rax), %rbp	 # MEM[(struct row_runner_args *)_5].boid_map, _9
 # .\src\main.cpp:1229:                                     update_non_interacting2(old_args->boid_map, old_args->rules, old_args->boid_list);
	movq	16(%rax), %r10	 # MEM[(struct row_runner_args *)_5].rules, _8
	movq	(%rdx), %r11	 # MEM[(struct BoidStore * *)_7], _13
	movl	8(%rbp), %esi	 # MEM[(int *)_9 + 8B], _12
 # .\src\main.cpp:1227:                                 .on_complete = (void *) (+[](TaskMaster *task_master, Task *current_task) {
	movq	%rcx, %r8	 # tmp630, D.170046
	movl	16(%rdx), %r14d	 # MEM[(int *)_7 + 16B], _14
 # .\src\main.cpp:983:     const auto world_height = boid_map->m_cell_size * boid_map->m_ysize;
	movl	0(%rbp), %edi	 # MEM[(int *)_9], world_height
 # .\src\main.cpp:977:     const auto xs = boid_list->m_boid_store->xs;
	movq	(%r11), %r9	 # _13->xs, xs
 # .\src\main.cpp:978:     const auto ys = boid_list->m_boid_store->ys;
	movq	8(%r11), %rdx	 # _13->ys, ys
 # .\src\main.cpp:983:     const auto world_height = boid_map->m_cell_size * boid_map->m_ysize;
	imull	%esi, %edi	 # _12, world_height
 # .\src\main.cpp:979:     const auto vxs = boid_list->m_boid_store->vxs;
	movq	16(%r11), %rax	 # _13->vxs, vxs
 # .\src\main.cpp:980:     const auto vys = boid_list->m_boid_store->vys;
	movq	24(%r11), %rcx	 # _13->vys, vys
	movl	%r14d, 4(%rsp)	 # _14, %sfp
 # .\src\main.cpp:984:     const auto world_width = boid_map->m_cell_size * boid_map->m_xsize;
	imull	4(%rbp), %esi	 # MEM[(int *)_9 + 4B], world_width
 # .\src\main.cpp:981:     const auto homes = boid_list->m_boid_store->homes;
	movq	40(%r11), %rbx	 # _13->homes, homes
 # .\src\main.cpp:987:     for (Boid boid = 0; boid < boid_list->m_size; boid++) {     
	testl	%r14d, %r14d	 # _14
	jle	.L173	 #,
 # .\src\main.cpp:991:         float home_loc_x = home_index_x * ((world_width - rules->edge_width * 2) /  16) + rules->edge_width;
	movl	24(%r10), %r11d	 # MEM[(const struct Rules *)_8].edge_width, _46
	vxorps	%xmm2, %xmm2, %xmm2	 # tmp632
 # .\src\main.cpp:991:         float home_loc_x = home_index_x * ((world_width - rules->edge_width * 2) /  16) + rules->edge_width;
	leal	(%r11,%r11), %ebp	 #, _47
 # .\src\main.cpp:991:         float home_loc_x = home_index_x * ((world_width - rules->edge_width * 2) /  16) + rules->edge_width;
	subl	%ebp, %esi	 # _47, tmp383
 # .\src\main.cpp:991:         float home_loc_x = home_index_x * ((world_width - rules->edge_width * 2) /  16) + rules->edge_width;
	leal	15(%rsi), %r12d	 #, tmp385
	cmovs	%r12d, %esi	 # tmp385,, tmp384
 # .\src\main.cpp:992:         float home_loc_y = home_index_y * ((world_height - rules->edge_width * 2) /  9) + rules->edge_width;
	subl	%ebp, %edi	 # _47, world_height
 # .\src\main.cpp:991:         float home_loc_x = home_index_x * ((world_width - rules->edge_width * 2) /  16) + rules->edge_width;
	sarl	$4, %esi	 #, tmp384
	movl	%esi, %r14d	 # tmp384, tmp386
 # .\src\main.cpp:992:         float home_loc_y = home_index_y * ((world_height - rules->edge_width * 2) /  9) + rules->edge_width;
	movl	%edi, %esi	 # world_height, tmp387
 # .\src\main.cpp:992:         float home_loc_y = home_index_y * ((world_height - rules->edge_width * 2) /  9) + rules->edge_width;
	movslq	%edi, %rdi	 # tmp387, tmp388
	imulq	$954437177, %rdi, %rdi	 #, tmp388, tmp389
	sarl	$31, %esi	 #, tmp392
	sarq	$33, %rdi	 #, tmp391
	subl	%esi, %edi	 # tmp392, tmp391
	movl	%edi, %r15d	 # tmp391, _54
	movl	4(%rsp), %edi	 # %sfp, _14
	movl	%edi, 8(%rsp)	 # _14, %sfp
	subl	$1, %edi	 #, _113
	movl	%edi, 44(%rsp)	 # _113, %sfp
	cmpl	$2, %edi	 #, _113
	jbe	.L204	 #,
	movslq	4(%rsp), %rdi	 # %sfp, _14
	leaq	31(%r9), %rbp	 #, _176
	leaq	40(%r10), %r13	 #, _111
	movq	%rbp, 16(%rsp)	 # _176, %sfp
	leaq	31(%rdx), %r12	 #, _191
	leaq	0(,%rdi,4), %rsi	 #, _107
	movq	%rdi, 32(%rsp)	 # _14, %sfp
	leaq	36(%r10), %rdi	 #, _105
	leaq	(%rdx,%rsi), %rbp	 #, tmp394
	movq	%r12, 24(%rsp)	 # _191, %sfp
	cmpq	%rbp, %rdi	 # tmp394, _105
	setnb	%bpl	 #, tmp396
	cmpq	%r13, %rdx	 # _111, ys
	setnb	%r12b	 #, tmp398
	orl	%r12d, %ebp	 # tmp398, tmp399
	leaq	(%r9,%rsi), %r12	 #, tmp400
	cmpq	%r12, %rdi	 # tmp400, _105
	setnb	%r12b	 #, tmp402
	cmpq	%r13, %r9	 # _111, xs
	setnb	43(%rsp)	 #, %sfp
	orb	43(%rsp), %r12b	 # %sfp, tmp405
	andl	%ebp, %r12d	 # tmp399, tmp406
	leaq	(%rax,%rsi), %rbp	 #, tmp407
	cmpq	%rbp, %rdi	 # tmp407, _105
	setnb	%bpl	 #, tmp409
	cmpq	%r13, %rax	 # _111, vxs
	setnb	43(%rsp)	 #, %sfp
	addq	%rcx, %rsi	 # vys, tmp414
	orb	43(%rsp), %bpl	 # %sfp, tmp412
	andl	%r12d, %ebp	 # tmp406, tmp413
	cmpq	%rsi, %rdi	 # tmp414, _105
	movq	16(%rsp), %rdi	 # %sfp, _176
	setnb	%sil	 #, tmp416
	cmpq	%r13, %rcx	 # _111, vys
	setnb	%r12b	 #, tmp418
	orl	%r12d, %esi	 # tmp418, tmp419
	andl	%ebp, %esi	 # tmp413, tmp420
	movq	%rdi, %rbp	 # _176, tmp421
	subq	%rdx, %rbp	 # ys, tmp421
	cmpq	$62, %rbp	 #, tmp421
	seta	%bpl	 #, tmp423
	andl	%ebp, %esi	 # tmp423, tmp424
	movq	%rdi, %rbp	 # _176, tmp425
	subq	%rax, %rbp	 # vxs, tmp425
	cmpq	$62, %rbp	 #, tmp425
	seta	%bpl	 #, tmp427
	subq	%rcx, %rdi	 # vys, _176
	andl	%esi, %ebp	 # tmp424, tmp428
	cmpq	$62, %rdi	 #, tmp429
	seta	%dil	 #, tmp431
	andl	%ebp, %edi	 # tmp428, tmp432
	movq	24(%rsp), %rbp	 # %sfp, _191
	movq	%rbp, %rsi	 # _191, tmp433
	subq	%rax, %rsi	 # vxs, tmp433
	cmpq	$62, %rsi	 #, tmp433
	seta	%sil	 #, tmp435
	andl	%edi, %esi	 # tmp432, tmp436
	movq	%rbp, %rdi	 # _191, _191
	subq	%rcx, %rdi	 # vys, _191
	cmpq	$62, %rdi	 #, tmp437
	seta	%dil	 #, tmp439
	testb	%dil, %sil	 # tmp439, tmp436
	je	.L169	 #,
	leaq	31(%rax), %rsi	 #, tmp441
	subq	%rcx, %rsi	 # vys, tmp442
	cmpq	$62, %rsi	 #, tmp442
	jbe	.L169	 #,
	cmpl	$6, 44(%rsp)	 #, %sfp
	jbe	.L183	 #,
	movl	4(%rsp), %edi	 # %sfp, bnd.1486
	movl	$15, %ebp	 #, tmp456
	vmovd	%r14d, %xmm8	 # tmp386, vect_cst__322
	xorl	%esi, %esi	 # ivtmp.1630
	vmovd	%r11d, %xmm5	 # _46, vect_cst__324
	vmovd	%r15d, %xmm7	 # _54, vect_cst__327
	vmovd	%ebp, %xmm3	 # tmp456, tmp455
	vbroadcastss	36(%r10), %ymm4	 # MEM[(const struct Rules *)_8].homing, vect_cst__344
	shrl	$3, %edi	 #,
	vpbroadcastd	%xmm8, %ymm8	 # vect_cst__322, vect_cst__322
	vpbroadcastd	%xmm5, %ymm5	 # vect_cst__324, vect_cst__324
	vpbroadcastd	%xmm7, %ymm7	 # vect_cst__327, vect_cst__327
	salq	$5, %rdi	 #, _255
	vpxor	%xmm6, %xmm6, %xmm6	 # tmp452
	vpbroadcastd	%xmm3, %ymm3	 # tmp455, tmp455
	.p2align 4,,10
	.p2align 3
.L171:
	vpcmpgtd	(%rbx,%rsi), %ymm6, %ymm9	 # MEM <vector(8) int> [(int *)homes_33 + ivtmp.1630_555 * 1], tmp452, tmp453
	vpand	%ymm3, %ymm9, %ymm9	 # tmp455, tmp453, vect_patt_131.1492
 # .\src\main.cpp:992:         float home_loc_y = home_index_y * ((world_height - rules->edge_width * 2) /  9) + rules->edge_width;
	vpaddd	(%rbx,%rsi), %ymm9, %ymm0	 # MEM <vector(8) int> [(int *)homes_33 + ivtmp.1630_555 * 1], vect_patt_131.1492, vect_patt_146.1493
	vpsrad	$4, %ymm0, %ymm1	 #, vect_patt_146.1493, vect_patt_148.1494
 # .\src\main.cpp:991:         float home_loc_x = home_index_x * ((world_width - rules->edge_width * 2) /  16) + rules->edge_width;
	vpand	%ymm3, %ymm0, %ymm0	 # tmp455, vect_patt_146.1493, vect_patt_134.1499
	vpsubd	%ymm9, %ymm0, %ymm0	 # vect_patt_131.1492, vect_patt_134.1499, vect_patt_135.1500
 # .\src\main.cpp:992:         float home_loc_y = home_index_y * ((world_height - rules->edge_width * 2) /  9) + rules->edge_width;
	vpmulld	%ymm7, %ymm1, %ymm1	 # vect_cst__327, vect_patt_148.1494, vect__55.1504
 # .\src\main.cpp:991:         float home_loc_x = home_index_x * ((world_width - rules->edge_width * 2) /  16) + rules->edge_width;
	vpmulld	%ymm8, %ymm0, %ymm0	 # vect_cst__322, vect_patt_135.1500, vect__50.1501
 # .\src\main.cpp:992:         float home_loc_y = home_index_y * ((world_height - rules->edge_width * 2) /  9) + rules->edge_width;
	vpaddd	%ymm5, %ymm1, %ymm1	 # vect_cst__324, vect__55.1504, vect__56.1505
 # .\src\main.cpp:991:         float home_loc_x = home_index_x * ((world_width - rules->edge_width * 2) /  16) + rules->edge_width;
	vpaddd	%ymm5, %ymm0, %ymm0	 # vect_cst__324, vect__50.1501, vect__51.1502
 # .\src\main.cpp:992:         float home_loc_y = home_index_y * ((world_height - rules->edge_width * 2) /  9) + rules->edge_width;
	vcvtdq2ps	%ymm1, %ymm1	 # vect__56.1505, vect_home_loc_y_57.1506
 # .\src\main.cpp:995:         float dy = home_loc_y - ys[boid];
	vsubps	(%rdx,%rsi), %ymm1, %ymm1	 # MEM <vector(8) float> [(float *)ys_30 + ivtmp.1630_555 * 1], vect_home_loc_y_57.1506, vect_dy_63.1514
 # .\src\main.cpp:991:         float home_loc_x = home_index_x * ((world_width - rules->edge_width * 2) /  16) + rules->edge_width;
	vcvtdq2ps	%ymm0, %ymm0	 # vect__51.1502, vect_home_loc_x_52.1503
 # .\src\main.cpp:994:         float dx = home_loc_x - xs[boid];
	vsubps	(%r9,%rsi), %ymm0, %ymm0	 # MEM <vector(8) float> [(float *)xs_29 + ivtmp.1630_555 * 1], vect_home_loc_x_52.1503, vect_dx_60.1510
 # .\src\main.cpp:997:         vxs[boid] += dx * rules->homing;
	vfmadd213ps	(%rax,%rsi), %ymm4, %ymm0	 # MEM <vector(8) float> [(float *)vxs_31 + ivtmp.1630_555 * 1], vect_cst__344, vect__68.1519
	vmovups	%ymm0, (%rax,%rsi)	 # vect__68.1519, MEM <vector(8) float> [(float *)vxs_31 + ivtmp.1630_555 * 1]
 # .\src\main.cpp:998:         vys[boid] += dy * rules->homing;
	vfmadd213ps	(%rcx,%rsi), %ymm4, %ymm1	 # MEM <vector(8) float> [(float *)vys_32 + ivtmp.1630_555 * 1], vect_cst__344, vect__73.1526
	vmovups	%ymm1, (%rcx,%rsi)	 # vect__73.1526, MEM <vector(8) float> [(float *)vys_32 + ivtmp.1630_555 * 1]
 # .\src\main.cpp:1000:         xs[boid] += vxs[boid];
	vmovups	(%r9,%rsi), %ymm1	 # MEM <vector(8) float> [(float *)xs_29 + ivtmp.1630_555 * 1], tmp702
	vaddps	(%rax,%rsi), %ymm1, %ymm0	 # MEM <vector(8) float> [(float *)vxs_31 + ivtmp.1630_555 * 1], tmp702, vect__76.1535
	vmovups	%ymm0, (%r9,%rsi)	 # vect__76.1535, MEM <vector(8) float> [(float *)xs_29 + ivtmp.1630_555 * 1]
 # .\src\main.cpp:1001:         ys[boid] += vys[boid];        
	vmovups	(%rdx,%rsi), %ymm1	 # MEM <vector(8) float> [(float *)ys_30 + ivtmp.1630_555 * 1], tmp703
	vaddps	(%rcx,%rsi), %ymm1, %ymm0	 # MEM <vector(8) float> [(float *)vys_32 + ivtmp.1630_555 * 1], tmp703, vect__79.1544
	vmovups	%ymm0, (%rdx,%rsi)	 # vect__79.1544, MEM <vector(8) float> [(float *)ys_30 + ivtmp.1630_555 * 1]
	addq	$32, %rsi	 #, ivtmp.1630
	cmpq	%rdi, %rsi	 # _255, ivtmp.1630
	jne	.L171	 #,
	movl	4(%rsp), %esi	 # %sfp, _14
	movl	%esi, %ebp	 # _14, tmp.1550
	andl	$-8, %ebp	 #, tmp.1550
	movl	%ebp, 16(%rsp)	 # tmp.1550, %sfp
	movl	%ebp, %edi	 # tmp.1550,
	cmpl	%ebp, %esi	 # tmp.1550, _14
	je	.L201	 #,
	subl	%ebp, %esi	 # tmp.1550, niters.1547
	movl	%esi, 8(%rsp)	 # niters.1547, %sfp
	subl	$1, %esi	 #, tmp485
	cmpl	$2, %esi	 #, tmp485
	jbe	.L205	 #,
	vzeroupper
.L170:
 # .\src\main.cpp:988:         int home_index_y = homes[boid] / 16;
	vmovdqu	(%rbx,%rdi,4), %xmm0	 # MEM <vector(4) int> [(int *)vectp_homes.1552_437], MEM <vector(4) int> [(int *)vectp_homes.1552_437]
	vpxor	%xmm4, %xmm4, %xmm4	 # tmp492
 # .\src\main.cpp:992:         float home_loc_y = home_index_y * ((world_height - rules->edge_width * 2) /  9) + rules->edge_width;
	vmovd	%r15d, %xmm5	 # _54, _54
	leaq	0(,%rdi,4), %rsi	 #, _439
	movl	$15, %edi	 #, tmp496
	vpshufd	$0, %xmm5, %xmm5	 # _54, tmp489
	leaq	(%r9,%rsi), %r12	 #, vectp_xs.1570
	vbroadcastss	36(%r10), %xmm3	 # MEM[(const struct Rules *)_8].homing, tmp490
	vpcmpgtd	%xmm0, %xmm4, %xmm4	 # MEM <vector(4) int> [(int *)vectp_homes.1552_437], tmp492, tmp493
	vmovd	%edi, %xmm6	 # tmp496, tmp496
	leaq	(%rax,%rsi), %r13	 #, vectp_vxs.1578
	movl	8(%rsp), %edi	 # %sfp, niters.1547
	vpshufd	$0, %xmm6, %xmm6	 # tmp496, tmp495
	leaq	(%rdx,%rsi), %rbp	 #, vectp_ys.1574
	addq	%rcx, %rsi	 # vys, vectp_vys.1585
	vpand	%xmm6, %xmm4, %xmm4	 # tmp495, tmp493, vect_patt_123.1554
	vpaddd	%xmm4, %xmm0, %xmm0	 # vect_patt_123.1554, MEM <vector(4) int> [(int *)vectp_homes.1552_437], vect_patt_122.1555
	vpsrad	$4, %xmm0, %xmm1	 #, vect_patt_122.1555, vect_patt_121.1556
 # .\src\main.cpp:991:         float home_loc_x = home_index_x * ((world_width - rules->edge_width * 2) /  16) + rules->edge_width;
	vpand	%xmm6, %xmm0, %xmm0	 # tmp495, vect_patt_122.1555, vect_patt_116.1561
	vpsubd	%xmm4, %xmm0, %xmm0	 # vect_patt_123.1554, vect_patt_116.1561, vect_patt_115.1562
 # .\src\main.cpp:992:         float home_loc_y = home_index_y * ((world_height - rules->edge_width * 2) /  9) + rules->edge_width;
	vpmulld	%xmm5, %xmm1, %xmm1	 # tmp489, vect_patt_121.1556, vect__260.1566
 # .\src\main.cpp:991:         float home_loc_x = home_index_x * ((world_width - rules->edge_width * 2) /  16) + rules->edge_width;
	vmovd	%r14d, %xmm4	 # tmp386, tmp386
	vpshufd	$0, %xmm4, %xmm4	 # tmp386, tmp487
 # .\src\main.cpp:992:         float home_loc_y = home_index_y * ((world_height - rules->edge_width * 2) /  9) + rules->edge_width;
	vmovd	%r11d, %xmm5	 # _46, _46
 # .\src\main.cpp:991:         float home_loc_x = home_index_x * ((world_width - rules->edge_width * 2) /  16) + rules->edge_width;
	vpmulld	%xmm4, %xmm0, %xmm0	 # tmp487, vect_patt_115.1562, vect__257.1563
 # .\src\main.cpp:992:         float home_loc_y = home_index_y * ((world_height - rules->edge_width * 2) /  9) + rules->edge_width;
	vpshufd	$0, %xmm5, %xmm5	 # _46, tmp488
	vpaddd	%xmm5, %xmm1, %xmm1	 # tmp488, vect__260.1566, vect__261.1567
 # .\src\main.cpp:992:         float home_loc_y = home_index_y * ((world_height - rules->edge_width * 2) /  9) + rules->edge_width;
	vcvtdq2ps	%xmm1, %xmm1	 # vect__261.1567, vect_home_loc_y_262.1568
 # .\src\main.cpp:995:         float dy = home_loc_y - ys[boid];
	vsubps	0(%rbp), %xmm1, %xmm1	 # MEM <vector(4) float> [(float *)vectp_ys.1574_478], vect_home_loc_y_262.1568, vect_dy_268.1576
 # .\src\main.cpp:991:         float home_loc_x = home_index_x * ((world_width - rules->edge_width * 2) /  16) + rules->edge_width;
	vpaddd	%xmm5, %xmm0, %xmm0	 # tmp488, vect__257.1563, vect__258.1564
 # .\src\main.cpp:991:         float home_loc_x = home_index_x * ((world_width - rules->edge_width * 2) /  16) + rules->edge_width;
	vcvtdq2ps	%xmm0, %xmm0	 # vect__258.1564, vect_home_loc_x_259.1565
 # .\src\main.cpp:994:         float dx = home_loc_x - xs[boid];
	vsubps	(%r12), %xmm0, %xmm0	 # MEM <vector(4) float> [(float *)vectp_xs.1570_471], vect_home_loc_x_259.1565, vect_dx_265.1572
 # .\src\main.cpp:997:         vxs[boid] += dx * rules->homing;
	vfmadd213ps	0(%r13), %xmm3, %xmm0	 # MEM <vector(4) float> [(float *)vectp_vxs.1578_485], tmp490, vect__273.1581
	vmovups	%xmm0, 0(%r13)	 # vect__273.1581, MEM <vector(4) float> [(float *)vectp_vxs.1578_485]
 # .\src\main.cpp:998:         vys[boid] += dy * rules->homing;
	vfmadd213ps	(%rsi), %xmm3, %xmm1	 # MEM <vector(4) float> [(float *)vectp_vys.1585_501], tmp490, vect_dy_268.1576
	vmovups	%xmm1, (%rsi)	 # vect__279.1588, MEM <vector(4) float> [(float *)vectp_vys.1585_501]
 # .\src\main.cpp:1000:         xs[boid] += vxs[boid];
	vmovups	0(%r13), %xmm0	 # MEM <vector(4) float> [(float *)vectp_vxs.1578_485], vect__282.1596
 # .\src\main.cpp:1000:         xs[boid] += vxs[boid];
	vaddps	(%r12), %xmm0, %xmm0	 # MEM <vector(4) float> [(float *)vectp_xs.1570_471], vect__282.1596, vect__283.1597
	vmovups	%xmm0, (%r12)	 # vect__283.1597, MEM <vector(4) float> [(float *)vectp_xs.1570_471]
 # .\src\main.cpp:1001:         ys[boid] += vys[boid];        
	vmovups	(%rsi), %xmm0	 # MEM <vector(4) float> [(float *)vectp_vys.1585_501], vect__286.1605
 # .\src\main.cpp:1001:         ys[boid] += vys[boid];        
	vaddps	0(%rbp), %xmm0, %xmm0	 # MEM <vector(4) float> [(float *)vectp_ys.1574_478], vect__286.1605, vect__287.1606
	movl	%edi, %esi	 # niters.1547, niters_vector_mult_vf.1549
	andl	$-4, %esi	 #, niters_vector_mult_vf.1549
	addl	%esi, 16(%rsp)	 # niters_vector_mult_vf.1549, %sfp
	andl	$3, %edi	 #, niters.1547
	vmovups	%xmm0, 0(%rbp)	 # vect__287.1606, MEM <vector(4) float> [(float *)vectp_ys.1574_478]
	je	.L173	 #,
.L175:
 # .\src\main.cpp:988:         int home_index_y = homes[boid] / 16;
	movslq	16(%rsp), %rsi	 # %sfp, tmp.1550
 # .\src\main.cpp:988:         int home_index_y = homes[boid] / 16;
	leaq	0(,%rsi,4), %r13	 #, _42
	movl	(%rbx,%rsi,4), %esi	 # *_43, _44
 # .\src\main.cpp:994:         float dx = home_loc_x - xs[boid];
	leaq	(%r9,%r13), %r12	 #, _59
 # .\src\main.cpp:995:         float dy = home_loc_y - ys[boid];
	leaq	(%rdx,%r13), %rbp	 #, _62
 # .\src\main.cpp:988:         int home_index_y = homes[boid] / 16;
	testl	%esi, %esi	 # _44
	leal	15(%rsi), %edi	 #, tmp530
	cmovns	%esi, %edi	 # tmp530,, _44, _44
	sarl	$4, %edi	 #, home_index_y
 # .\src\main.cpp:992:         float home_loc_y = home_index_y * ((world_height - rules->edge_width * 2) /  9) + rules->edge_width;
	imull	%r15d, %edi	 # _54, tmp532
 # .\src\main.cpp:992:         float home_loc_y = home_index_y * ((world_height - rules->edge_width * 2) /  9) + rules->edge_width;
	addl	%r11d, %edi	 # _46, tmp533
 # .\src\main.cpp:992:         float home_loc_y = home_index_y * ((world_height - rules->edge_width * 2) /  9) + rules->edge_width;
	vcvtsi2ssl	%edi, %xmm2, %xmm0	 # tmp533, tmp632, tmp633
 # .\src\main.cpp:997:         vxs[boid] += dx * rules->homing;
	leaq	(%rax,%r13), %rdi	 #, _65
	movq	%rdi, 8(%rsp)	 # _65, %sfp
 # .\src\main.cpp:989:         int home_index_x = homes[boid] % 16;
	movl	%esi, %edi	 # _44, tmp536
 # .\src\main.cpp:995:         float dy = home_loc_y - ys[boid];
	vsubss	0(%rbp), %xmm0, %xmm0	 # *_62, home_loc_y, dy
 # .\src\main.cpp:989:         int home_index_x = homes[boid] % 16;
	sarl	$31, %edi	 #, tmp536
	shrl	$28, %edi	 #, tmp537
	addl	%edi, %esi	 # tmp537, tmp538
	andl	$15, %esi	 #, tmp539
	subl	%edi, %esi	 # tmp537, home_index_x
 # .\src\main.cpp:997:         vxs[boid] += dx * rules->homing;
	movq	8(%rsp), %rdi	 # %sfp, _65
 # .\src\main.cpp:991:         float home_loc_x = home_index_x * ((world_width - rules->edge_width * 2) /  16) + rules->edge_width;
	imull	%r14d, %esi	 # tmp386, tmp541
 # .\src\main.cpp:997:         vxs[boid] += dx * rules->homing;
	vmovss	(%rdi), %xmm3	 # *_65, tmp722
 # .\src\main.cpp:991:         float home_loc_x = home_index_x * ((world_width - rules->edge_width * 2) /  16) + rules->edge_width;
	addl	%r11d, %esi	 # _46, tmp542
 # .\src\main.cpp:991:         float home_loc_x = home_index_x * ((world_width - rules->edge_width * 2) /  16) + rules->edge_width;
	vcvtsi2ssl	%esi, %xmm2, %xmm1	 # tmp542, tmp632, tmp634
 # .\src\main.cpp:994:         float dx = home_loc_x - xs[boid];
	vsubss	(%r12), %xmm1, %xmm1	 # *_59, home_loc_x, dx
 # .\src\main.cpp:997:         vxs[boid] += dx * rules->homing;
	vfmadd132ss	36(%r10), %xmm3, %xmm1	 # MEM[(const struct Rules *)_8].homing, tmp722, _69
 # .\src\main.cpp:998:         vys[boid] += dy * rules->homing;
	leaq	(%rcx,%r13), %rsi	 #, _71
 # .\src\main.cpp:997:         vxs[boid] += dx * rules->homing;
	vmovss	%xmm1, (%rdi)	 # _69, *_65
 # .\src\main.cpp:998:         vys[boid] += dy * rules->homing;
	vmovss	(%rsi), %xmm3	 # *_71, tmp724
	vfmadd132ss	36(%r10), %xmm3, %xmm0	 # MEM[(const struct Rules *)_8].homing, tmp724, _75
	vmovss	%xmm0, (%rsi)	 # _75, *_71
 # .\src\main.cpp:1000:         xs[boid] += vxs[boid];
	vmovss	(%r12), %xmm0	 # *_59, *_59
	vaddss	(%rdi), %xmm0, %xmm0	 # *_65, *_59, tmp545
 # .\src\main.cpp:987:     for (Boid boid = 0; boid < boid_list->m_size; boid++) {     
	movl	16(%rsp), %edi	 # %sfp, tmp.1550
 # .\src\main.cpp:1000:         xs[boid] += vxs[boid];
	vmovss	%xmm0, (%r12)	 # tmp545, *_59
 # .\src\main.cpp:1001:         ys[boid] += vys[boid];        
	vmovss	0(%rbp), %xmm0	 # *_62, *_62
	vaddss	(%rsi), %xmm0, %xmm0	 # *_71, *_62, tmp547
 # .\src\main.cpp:987:     for (Boid boid = 0; boid < boid_list->m_size; boid++) {     
	leal	1(%rdi), %esi	 #, boid
 # .\src\main.cpp:1001:         ys[boid] += vys[boid];        
	vmovss	%xmm0, 0(%rbp)	 # tmp547, *_62
 # .\src\main.cpp:987:     for (Boid boid = 0; boid < boid_list->m_size; boid++) {     
	cmpl	%esi, 4(%rsp)	 # boid, %sfp
	jle	.L173	 #,
 # .\src\main.cpp:988:         int home_index_y = homes[boid] / 16;
	movl	4(%rbx,%r13), %esi	 # *_259, _260
	leaq	4(%r13), %rdi	 #, _258
 # .\src\main.cpp:994:         float dx = home_loc_x - xs[boid];
	leaq	(%r9,%rdi), %rbp	 #, _269
 # .\src\main.cpp:995:         float dy = home_loc_y - ys[boid];
	leaq	(%rdx,%rdi), %r12	 #, _272
 # .\src\main.cpp:988:         int home_index_y = homes[boid] / 16;
	testl	%esi, %esi	 # _260
 # .\src\main.cpp:994:         float dx = home_loc_x - xs[boid];
	movq	%rbp, 8(%rsp)	 # _269, %sfp
 # .\src\main.cpp:988:         int home_index_y = homes[boid] / 16;
	leal	15(%rsi), %ebp	 #, tmp552
	cmovns	%esi, %ebp	 # tmp552,, _260, _260
	sarl	$4, %ebp	 #, home_index_y
 # .\src\main.cpp:992:         float home_loc_y = home_index_y * ((world_height - rules->edge_width * 2) /  9) + rules->edge_width;
	imull	%r15d, %ebp	 # _54, tmp554
 # .\src\main.cpp:992:         float home_loc_y = home_index_y * ((world_height - rules->edge_width * 2) /  9) + rules->edge_width;
	addl	%r11d, %ebp	 # _46, tmp555
 # .\src\main.cpp:992:         float home_loc_y = home_index_y * ((world_height - rules->edge_width * 2) /  9) + rules->edge_width;
	vcvtsi2ssl	%ebp, %xmm2, %xmm0	 # tmp555, tmp632, tmp635
 # .\src\main.cpp:997:         vxs[boid] += dx * rules->homing;
	leaq	(%rax,%rdi), %rbp	 #, _276
 # .\src\main.cpp:998:         vys[boid] += dy * rules->homing;
	addq	%rcx, %rdi	 # vys, _283
 # .\src\main.cpp:997:         vxs[boid] += dx * rules->homing;
	movq	%rbp, 24(%rsp)	 # _276, %sfp
 # .\src\main.cpp:989:         int home_index_x = homes[boid] % 16;
	movl	%esi, %ebp	 # _260, tmp558
 # .\src\main.cpp:995:         float dy = home_loc_y - ys[boid];
	vsubss	(%r12), %xmm0, %xmm0	 # *_272, home_loc_y, dy
 # .\src\main.cpp:989:         int home_index_x = homes[boid] % 16;
	sarl	$31, %ebp	 #, tmp558
	shrl	$28, %ebp	 #, tmp559
	addl	%ebp, %esi	 # tmp559, tmp560
	andl	$15, %esi	 #, tmp561
	subl	%ebp, %esi	 # tmp559, home_index_x
 # .\src\main.cpp:994:         float dx = home_loc_x - xs[boid];
	movq	8(%rsp), %rbp	 # %sfp, _269
 # .\src\main.cpp:991:         float home_loc_x = home_index_x * ((world_width - rules->edge_width * 2) /  16) + rules->edge_width;
	imull	%r14d, %esi	 # tmp386, tmp563
 # .\src\main.cpp:991:         float home_loc_x = home_index_x * ((world_width - rules->edge_width * 2) /  16) + rules->edge_width;
	addl	%r11d, %esi	 # _46, tmp564
 # .\src\main.cpp:991:         float home_loc_x = home_index_x * ((world_width - rules->edge_width * 2) /  16) + rules->edge_width;
	vcvtsi2ssl	%esi, %xmm2, %xmm1	 # tmp564, tmp632, tmp636
 # .\src\main.cpp:997:         vxs[boid] += dx * rules->homing;
	movq	24(%rsp), %rsi	 # %sfp, _276
 # .\src\main.cpp:994:         float dx = home_loc_x - xs[boid];
	vsubss	0(%rbp), %xmm1, %xmm1	 # *_269, home_loc_x, dx
 # .\src\main.cpp:997:         vxs[boid] += dx * rules->homing;
	vmovss	(%rsi), %xmm3	 # *_276, tmp733
	vfmadd132ss	36(%r10), %xmm3, %xmm1	 # MEM[(const struct Rules *)_8].homing, tmp733, _281
	vmovss	%xmm1, (%rsi)	 # _281, *_276
 # .\src\main.cpp:998:         vys[boid] += dy * rules->homing;
	vmovss	(%rdi), %xmm3	 # *_283, tmp735
	vfmadd132ss	36(%r10), %xmm3, %xmm0	 # MEM[(const struct Rules *)_8].homing, tmp735, _289
	vmovss	%xmm0, (%rdi)	 # _289, *_283
 # .\src\main.cpp:1000:         xs[boid] += vxs[boid];
	vmovss	0(%rbp), %xmm0	 # *_269, *_269
	vaddss	(%rsi), %xmm0, %xmm0	 # *_276, *_269, tmp567
 # .\src\main.cpp:987:     for (Boid boid = 0; boid < boid_list->m_size; boid++) {     
	movl	16(%rsp), %esi	 # %sfp, tmp.1550
 # .\src\main.cpp:1000:         xs[boid] += vxs[boid];
	vmovss	%xmm0, 0(%rbp)	 # tmp567, *_269
 # .\src\main.cpp:1001:         ys[boid] += vys[boid];        
	vmovss	(%r12), %xmm0	 # *_272, *_272
	vaddss	(%rdi), %xmm0, %xmm0	 # *_283, *_272, tmp569
 # .\src\main.cpp:987:     for (Boid boid = 0; boid < boid_list->m_size; boid++) {     
	addl	$2, %esi	 #, tmp.1550
 # .\src\main.cpp:1001:         ys[boid] += vys[boid];        
	vmovss	%xmm0, (%r12)	 # tmp569, *_272
 # .\src\main.cpp:987:     for (Boid boid = 0; boid < boid_list->m_size; boid++) {     
	cmpl	%esi, 4(%rsp)	 # boid, %sfp
	jle	.L173	 #,
 # .\src\main.cpp:988:         int home_index_y = homes[boid] / 16;
	movl	8(%rbx,%r13), %ebx	 # *_389, _390
	leaq	8(%r13), %rsi	 #, _388
 # .\src\main.cpp:994:         float dx = home_loc_x - xs[boid];
	addq	%rsi, %r9	 # _388, _399
 # .\src\main.cpp:995:         float dy = home_loc_y - ys[boid];
	addq	%rsi, %rdx	 # _388, _402
 # .\src\main.cpp:988:         int home_index_y = homes[boid] / 16;
	leal	15(%rbx), %edi	 #, tmp574
	testl	%ebx, %ebx	 # _390
	cmovns	%ebx, %edi	 # tmp574,, _390, _390
 # .\src\main.cpp:997:         vxs[boid] += dx * rules->homing;
	addq	%rsi, %rax	 # _388, _405
 # .\src\main.cpp:998:         vys[boid] += dy * rules->homing;
	addq	%rcx, %rsi	 # vys, _411
 # .\src\main.cpp:997:         vxs[boid] += dx * rules->homing;
	vmovss	(%rax), %xmm3	 # *_405, tmp742
 # .\src\main.cpp:988:         int home_index_y = homes[boid] / 16;
	sarl	$4, %edi	 #, home_index_y
 # .\src\main.cpp:992:         float home_loc_y = home_index_y * ((world_height - rules->edge_width * 2) /  9) + rules->edge_width;
	imull	%r15d, %edi	 # _54, tmp576
 # .\src\main.cpp:992:         float home_loc_y = home_index_y * ((world_height - rules->edge_width * 2) /  9) + rules->edge_width;
	addl	%r11d, %edi	 # _46, tmp577
 # .\src\main.cpp:992:         float home_loc_y = home_index_y * ((world_height - rules->edge_width * 2) /  9) + rules->edge_width;
	vcvtsi2ssl	%edi, %xmm2, %xmm0	 # tmp577, tmp632, tmp637
 # .\src\main.cpp:989:         int home_index_x = homes[boid] % 16;
	movl	%ebx, %edi	 # _390, tmp580
 # .\src\main.cpp:995:         float dy = home_loc_y - ys[boid];
	vsubss	(%rdx), %xmm0, %xmm0	 # *_402, home_loc_y, dy
 # .\src\main.cpp:989:         int home_index_x = homes[boid] % 16;
	sarl	$31, %edi	 #, tmp580
	shrl	$28, %edi	 #, tmp581
	addl	%edi, %ebx	 # tmp581, tmp582
	andl	$15, %ebx	 #, tmp583
	subl	%edi, %ebx	 # tmp581, home_index_x
 # .\src\main.cpp:991:         float home_loc_x = home_index_x * ((world_width - rules->edge_width * 2) /  16) + rules->edge_width;
	imull	%r14d, %ebx	 # tmp386, tmp585
 # .\src\main.cpp:991:         float home_loc_x = home_index_x * ((world_width - rules->edge_width * 2) /  16) + rules->edge_width;
	addl	%ebx, %r11d	 # tmp585, tmp586
 # .\src\main.cpp:991:         float home_loc_x = home_index_x * ((world_width - rules->edge_width * 2) /  16) + rules->edge_width;
	vcvtsi2ssl	%r11d, %xmm2, %xmm2	 # tmp586, tmp632, tmp638
 # .\src\main.cpp:994:         float dx = home_loc_x - xs[boid];
	vsubss	(%r9), %xmm2, %xmm2	 # *_399, home_loc_x, dx
 # .\src\main.cpp:997:         vxs[boid] += dx * rules->homing;
	vfmadd132ss	36(%r10), %xmm3, %xmm2	 # MEM[(const struct Rules *)_8].homing, tmp742, _409
	vmovss	%xmm2, (%rax)	 # _409, *_405
 # .\src\main.cpp:998:         vys[boid] += dy * rules->homing;
	vmovss	(%rsi), %xmm3	 # *_411, tmp743
	vfmadd132ss	36(%r10), %xmm3, %xmm0	 # MEM[(const struct Rules *)_8].homing, tmp743, _415
	vmovss	%xmm0, (%rsi)	 # _415, *_411
 # .\src\main.cpp:1000:         xs[boid] += vxs[boid];
	vmovss	(%r9), %xmm0	 # *_399, *_399
	vaddss	(%rax), %xmm0, %xmm0	 # *_405, *_399, tmp589
	vmovss	%xmm0, (%r9)	 # tmp589, *_399
 # .\src\main.cpp:1001:         ys[boid] += vys[boid];        
	vmovss	(%rdx), %xmm0	 # *_402, *_402
	vaddss	(%rsi), %xmm0, %xmm0	 # *_411, *_402, tmp591
	vmovss	%xmm0, (%rdx)	 # tmp591, *_402
	.p2align 4,,10
	.p2align 3
.L173:
	leaq	66144(%r8), %rax	 #, _15
	.p2align 4,,10
	.p2align 3
.L168:
 # C:/msys64/ucrt64/include/psdk_inc/intrin-impl.h:1800: __buildbittesti(_interlockedbittestandset, __LONG32, "lock bts{l %[Offset],%[Base] | %[Base],%[Offset]}" __FLAGSET, "I")
/APP
 # 1800 "C:/msys64/ucrt64/include/psdk_inc/intrin-impl.h" 1
	lock btsl $0,(%rax) 	 #, MEM[(volatile long int *)_15]
 # 0 "" 2
 # .\src\.\task_master\lock.h:40:         while (_interlockedbittestandset(&lock_internal, 0)) {}
/NO_APP
	jc	.L168	 #,
 # .\src\.\task_master\taskmaster.h:87:         for (int i = 0; i < num_threads; i++) {
	movl	8(%r8), %r10d	 # _2(D)->num_threads, _34
 # .\src\.\task_master\taskmaster.h:87:         for (int i = 0; i < num_threads; i++) {
	testl	%r10d, %r10d	 # _34
	je	.L182	 #,
 # .\src\.\task_master\ringbuffer.h:19:         if (next != tail)
	movq	65560(%r8), %r11	 # MEM[(struct RingBuffer *)_2(D) + 16B].tail, _20
 # .\src\.\task_master\ringbuffer.h:18:         size_t next = (head + 1) % capacity;
	movq	65552(%r8), %rax	 # MEM[(struct RingBuffer *)_2(D) + 16B].head, next
 # .\src\.\task_master\taskmaster.h:87:         for (int i = 0; i < num_threads; i++) {
	xorl	%ecx, %ecx	 # i
 # .\src\.\task_master\ringbuffer.h:21:             data[head] = item;
	vpxor	%xmm0, %xmm0, %xmm0	 # tmp629
.L181:
	movq	%rax, %rdx	 # next, prephitmp_287
 # .\src\.\task_master\ringbuffer.h:18:         size_t next = (head + 1) % capacity;
	leaq	1(%rax), %rax	 #, tmp617
 # .\src\.\task_master\ringbuffer.h:18:         size_t next = (head + 1) % capacity;
	andl	$2047, %eax	 #, next
 # .\src\.\task_master\ringbuffer.h:19:         if (next != tail)
	cmpq	%r11, %rax	 # _20, next
	je	.L182	 #,
 # .\src\.\task_master\ringbuffer.h:21:             data[head] = item;
	salq	$5, %rdx	 #, tmp618
 # .\src\.\task_master\taskmaster.h:87:         for (int i = 0; i < num_threads; i++) {
	addl	$1, %ecx	 #, i
 # .\src\.\task_master\ringbuffer.h:21:             data[head] = item;
	leaq	(%r8,%rdx), %r9	 #, tmp619
	movl	$4, 16(%r9)	 #, MEM <unsigned int> [(struct Task *)_21]
	vmovdqu	%xmm0, 24(%r8,%rdx)	 # tmp629, MEM <vector(2) long long unsigned int> [(void *)vectp.1613_520]
	movq	$0, 40(%r9)	 #, MEM[(struct RingBuffer *)_2(D) + 16B].data[prephitmp_287].on_complete
 # .\src\.\task_master\ringbuffer.h:22:             head = next;
	movq	%rax, 65552(%r8)	 # next, MEM[(struct RingBuffer *)_2(D) + 16B].head
 # .\src\.\task_master\taskmaster.h:87:         for (int i = 0; i < num_threads; i++) {
	cmpl	%r10d, %ecx	 # _34, i
	jne	.L181	 #,
.L182:
 # C:/msys64/ucrt64/include/psdk_inc/intrin-impl.h:1809: __buildbittesti(_interlockedbittestandreset, __LONG32, "lock btr{l %[Offset],%[Base] | %[Base],%[Offset]}" __FLAGSET, "I")
/APP
 # 1809 "C:/msys64/ucrt64/include/psdk_inc/intrin-impl.h" 1
	lock btrl $0,66144(%r8) 	 #, MEM[(volatile long int *)_15]
 # 0 "" 2
 # .\src\main.cpp:1231:                                 }),
/NO_APP
	vmovups	48(%rsp), %xmm6	 #,
	vmovups	64(%rsp), %xmm7	 #,
	vmovups	80(%rsp), %xmm8	 #,
	vmovups	96(%rsp), %xmm9	 #,
	addq	$120, %rsp	 #,
	popq	%rbx	 #
	popq	%rsi	 #
	popq	%rdi	 #
	popq	%rbp	 #
	popq	%r12	 #
	popq	%r13	 #
	popq	%r14	 #
	popq	%r15	 #
	ret	
	.p2align 4,,10
	.p2align 3
.L204:
	movslq	4(%rsp), %rdi	 # %sfp, _14
	movq	%rdi, 32(%rsp)	 # _14, %sfp
.L169:
	movq	32(%rsp), %rbp	 # %sfp, _14
 # .\src\main.cpp:987:     for (Boid boid = 0; boid < boid_list->m_size; boid++) {     
	xorl	%esi, %esi	 # ivtmp.1626
	salq	$2, %rbp	 #, _14
	.p2align 4,,10
	.p2align 3
.L177:
 # .\src\main.cpp:988:         int home_index_y = homes[boid] / 16;
	movl	(%rbx,%rsi), %edi	 # MEM[(int *)homes_33 + ivtmp.1626_533 * 1], _211
 # .\src\main.cpp:997:         vxs[boid] += dx * rules->homing;
	vmovss	(%rax,%rsi), %xmm7	 # MEM[(float *)vxs_31 + ivtmp.1626_533 * 1], tmp746
 # .\src\main.cpp:988:         int home_index_y = homes[boid] / 16;
	testl	%edi, %edi	 # _211
	leal	15(%rdi), %r12d	 #, tmp596
	cmovns	%edi, %r12d	 # tmp596,, _211, _211
	sarl	$4, %r12d	 #, home_index_y
 # .\src\main.cpp:992:         float home_loc_y = home_index_y * ((world_height - rules->edge_width * 2) /  9) + rules->edge_width;
	imull	%r15d, %r12d	 # _54, tmp598
 # .\src\main.cpp:992:         float home_loc_y = home_index_y * ((world_height - rules->edge_width * 2) /  9) + rules->edge_width;
	addl	%r11d, %r12d	 # _46, tmp599
 # .\src\main.cpp:992:         float home_loc_y = home_index_y * ((world_height - rules->edge_width * 2) /  9) + rules->edge_width;
	vcvtsi2ssl	%r12d, %xmm2, %xmm0	 # tmp599, tmp632, tmp639
 # .\src\main.cpp:989:         int home_index_x = homes[boid] % 16;
	movl	%edi, %r12d	 # _211, tmp602
 # .\src\main.cpp:995:         float dy = home_loc_y - ys[boid];
	vsubss	(%rdx,%rsi), %xmm0, %xmm0	 # MEM[(float *)ys_30 + ivtmp.1626_533 * 1], home_loc_y, dy
 # .\src\main.cpp:989:         int home_index_x = homes[boid] % 16;
	sarl	$31, %r12d	 #, tmp602
	shrl	$28, %r12d	 #, tmp603
	addl	%r12d, %edi	 # tmp603, tmp604
	andl	$15, %edi	 #, tmp605
	subl	%r12d, %edi	 # tmp603, home_index_x
 # .\src\main.cpp:991:         float home_loc_x = home_index_x * ((world_width - rules->edge_width * 2) /  16) + rules->edge_width;
	imull	%r14d, %edi	 # tmp386, tmp607
 # .\src\main.cpp:991:         float home_loc_x = home_index_x * ((world_width - rules->edge_width * 2) /  16) + rules->edge_width;
	addl	%r11d, %edi	 # _46, tmp608
 # .\src\main.cpp:991:         float home_loc_x = home_index_x * ((world_width - rules->edge_width * 2) /  16) + rules->edge_width;
	vcvtsi2ssl	%edi, %xmm2, %xmm1	 # tmp608, tmp632, tmp640
 # .\src\main.cpp:994:         float dx = home_loc_x - xs[boid];
	vsubss	(%r9,%rsi), %xmm1, %xmm1	 # MEM[(float *)xs_29 + ivtmp.1626_533 * 1], home_loc_x, dx
 # .\src\main.cpp:997:         vxs[boid] += dx * rules->homing;
	vfmadd132ss	36(%r10), %xmm7, %xmm1	 # MEM[(const struct Rules *)_8].homing, tmp746, _230
	vmovss	%xmm1, (%rax,%rsi)	 # _230, MEM[(float *)vxs_31 + ivtmp.1626_533 * 1]
 # .\src\main.cpp:998:         vys[boid] += dy * rules->homing;
	vmovss	(%rcx,%rsi), %xmm6	 # MEM[(float *)vys_32 + ivtmp.1626_533 * 1], tmp747
	vfmadd132ss	36(%r10), %xmm6, %xmm0	 # MEM[(const struct Rules *)_8].homing, tmp747, _236
	vmovss	%xmm0, (%rcx,%rsi)	 # _236, MEM[(float *)vys_32 + ivtmp.1626_533 * 1]
 # .\src\main.cpp:1000:         xs[boid] += vxs[boid];
	vmovss	(%r9,%rsi), %xmm0	 # MEM[(float *)xs_29 + ivtmp.1626_533 * 1], MEM[(float *)xs_29 + ivtmp.1626_533 * 1]
	vaddss	(%rax,%rsi), %xmm0, %xmm0	 # MEM[(float *)vxs_31 + ivtmp.1626_533 * 1], MEM[(float *)xs_29 + ivtmp.1626_533 * 1], tmp611
	vmovss	%xmm0, (%r9,%rsi)	 # tmp611, MEM[(float *)xs_29 + ivtmp.1626_533 * 1]
 # .\src\main.cpp:1001:         ys[boid] += vys[boid];        
	vmovss	(%rdx,%rsi), %xmm0	 # MEM[(float *)ys_30 + ivtmp.1626_533 * 1], MEM[(float *)ys_30 + ivtmp.1626_533 * 1]
	vaddss	(%rcx,%rsi), %xmm0, %xmm0	 # MEM[(float *)vys_32 + ivtmp.1626_533 * 1], MEM[(float *)ys_30 + ivtmp.1626_533 * 1], tmp613
	vmovss	%xmm0, (%rdx,%rsi)	 # tmp613, MEM[(float *)ys_30 + ivtmp.1626_533 * 1]
 # .\src\main.cpp:987:     for (Boid boid = 0; boid < boid_list->m_size; boid++) {     
	addq	$4, %rsi	 #, ivtmp.1626
	cmpq	%rbp, %rsi	 # _552, ivtmp.1626
	jne	.L177	 #,
	jmp	.L173	 #
.L201:
	vzeroupper
	jmp	.L173	 #
.L183:
 # .\src\main.cpp:987:     for (Boid boid = 0; boid < boid_list->m_size; boid++) {     
	movl	$0, 16(%rsp)	 #, %sfp
 # .\src\main.cpp:992:         float home_loc_y = home_index_y * ((world_height - rules->edge_width * 2) /  9) + rules->edge_width;
	xorl	%edi, %edi	 #
	jmp	.L170	 #
.L205:
	vzeroupper
	jmp	.L175	 #
	.seh_endproc
	.section	.text$_ZNSt13__future_base21_Async_state_commonV2D1Ev,"x"
	.linkonce discard
	.align 2
	.p2align 4
	.globl	_ZNSt13__future_base21_Async_state_commonV2D1Ev
	.def	_ZNSt13__future_base21_Async_state_commonV2D1Ev;	.scl	2;	.type	32;	.endef
	.seh_proc	_ZNSt13__future_base21_Async_state_commonV2D1Ev
_ZNSt13__future_base21_Async_state_commonV2D1Ev:
.LFB14614:
	pushq	%rbx	 #
	.seh_pushreg	%rbx
	subq	$32, %rsp	 #,
	.seh_stackalloc	32
	.seh_endprologue
 # C:/msys64/ucrt64/include/c++/13.1.0/future:1718:     ~_Async_state_commonV2() = default;
	leaq	16+_ZTVNSt13__future_base21_Async_state_commonV2E(%rip), %rax	 #, tmp101
 # C:/msys64/ucrt64/include/c++/13.1.0/bits/std_thread.h:172:       if (joinable())
	cmpq	$0, 48(%rcx)	 #, MEM[(const struct thread *)this_3(D) + 48B]._M_id._M_thread
 # C:/msys64/ucrt64/include/c++/13.1.0/future:1718:     ~_Async_state_commonV2() = default;
	movq	%rax, (%rcx)	 # tmp101, this_3(D)->D.152781._vptr._State_baseV2
	movq	%rcx, %rbx	 # tmp99, this
 # C:/msys64/ucrt64/include/c++/13.1.0/bits/std_thread.h:172:       if (joinable())
	jne	.L214	 #,
 # C:/msys64/ucrt64/include/c++/13.1.0/future:344:       virtual ~_State_baseV2() = default;
	leaq	16+_ZTVNSt13__future_base13_State_baseV2E(%rip), %rax	 #, tmp102
 # C:/msys64/ucrt64/include/c++/13.1.0/bits/atomic_futex.h:288:   class __atomic_futex_unsigned
	leaq	32(%rcx), %rcx	 #, tmp94
 # C:/msys64/ucrt64/include/c++/13.1.0/future:344:       virtual ~_State_baseV2() = default;
	movq	%rax, -32(%rcx)	 # tmp102, MEM[(struct _State_baseV2 *)this_3(D)]._vptr._State_baseV2
 # C:/msys64/ucrt64/include/c++/13.1.0/bits/atomic_futex.h:288:   class __atomic_futex_unsigned
	call	_ZNSt18condition_variableD1Ev	 #
 # C:/msys64/ucrt64/include/c++/13.1.0/bits/std_mutex.h:77:     ~__mutex_base() noexcept { __gthread_mutex_destroy(&_M_mutex); }
	leaq	24(%rbx), %rcx	 #, tmp95
 # C:/msys64/ucrt64/include/c++/13.1.0/x86_64-w64-mingw32/bits/gthr-default.h:740:     return __gthrw_(pthread_mutex_destroy) (__mutex);
	call	pthread_mutex_destroy	 #
 # C:/msys64/ucrt64/include/c++/13.1.0/bits/unique_ptr.h:403: 	if (__ptr != nullptr)
	movq	8(%rbx), %rcx	 # MEM[(struct _Result_base * &)this_3(D) + 8], _12
 # C:/msys64/ucrt64/include/c++/13.1.0/bits/unique_ptr.h:403: 	if (__ptr != nullptr)
	testq	%rcx, %rcx	 # _12
	je	.L213	 #,
 # C:/msys64/ucrt64/include/c++/13.1.0/future:229: 	void operator()(_Result_base* __fr) const { __fr->_M_destroy(); }
	movq	(%rcx), %rax	 # _12->_vptr._Result_base, _13
	leaq	_ZNSt13__future_base7_ResultIvE10_M_destroyEv(%rip), %r8	 #, tmp97
	movq	(%rax), %rdx	 # *_13, _14
	cmpq	%r8, %rdx	 # tmp97, _14
	jne	.L209	 #,
 # C:/msys64/ucrt64/include/c++/13.1.0/future:672:       void _M_destroy() { delete this; }
	movq	16(%rax), %rax	 # MEM[(int (*) () *)_13 + 16B], MEM[(int (*) () *)_13 + 16B]
 # C:/msys64/ucrt64/include/c++/13.1.0/future:1718:     ~_Async_state_commonV2() = default;
	addq	$32, %rsp	 #,
	popq	%rbx	 #
 # C:/msys64/ucrt64/include/c++/13.1.0/future:672:       void _M_destroy() { delete this; }
	rex.W jmp	*%rax	 # MEM[(int (*) () *)_13 + 16B]
	.p2align 4,,10
	.p2align 3
.L209:
 # C:/msys64/ucrt64/include/c++/13.1.0/future:229: 	void operator()(_Result_base* __fr) const { __fr->_M_destroy(); }
	call	*%rdx	 # _14
	nop	
.L213:
 # C:/msys64/ucrt64/include/c++/13.1.0/future:1718:     ~_Async_state_commonV2() = default;
	addq	$32, %rsp	 #,
	popq	%rbx	 #
	ret	
.L214:
 # C:/msys64/ucrt64/include/c++/13.1.0/x86_64-w64-mingw32/bits/c++config.h:322:     terminate();
	call	_ZSt9terminatev	 #
	nop	
	.seh_handler	__gxx_personality_seh0, @unwind, @except
	.seh_handlerdata
.LLSDA14614:
	.byte	0xff
	.byte	0xff
	.byte	0x1
	.uleb128 .LLSDACSE14614-.LLSDACSB14614
.LLSDACSB14614:
.LLSDACSE14614:
	.section	.text$_ZNSt13__future_base21_Async_state_commonV2D1Ev,"x"
	.linkonce discard
	.seh_endproc
	.section	.text$_Z11jump_runneribPK7BoidMapPK5RulesPK8BoidList,"x"
	.linkonce discard
	.p2align 4
	.globl	_Z11jump_runneribPK7BoidMapPK5RulesPK8BoidList
	.def	_Z11jump_runneribPK7BoidMapPK5RulesPK8BoidList;	.scl	2;	.type	32;	.endef
	.seh_proc	_Z11jump_runneribPK7BoidMapPK5RulesPK8BoidList
_Z11jump_runneribPK7BoidMapPK5RulesPK8BoidList:
.LFB12614:
	pushq	%r15	 #
	.seh_pushreg	%r15
	pushq	%r14	 #
	.seh_pushreg	%r14
	pushq	%r13	 #
	.seh_pushreg	%r13
	pushq	%r12	 #
	.seh_pushreg	%r12
	pushq	%rbp	 #
	.seh_pushreg	%rbp
	pushq	%rdi	 #
	.seh_pushreg	%rdi
	pushq	%rsi	 #
	.seh_pushreg	%rsi
	pushq	%rbx	 #
	.seh_pushreg	%rbx
	subq	$680, %rsp	 #,
	.seh_stackalloc	680
	vmovups	%xmm6, 512(%rsp)	 #,
	.seh_savexmm	%xmm6, 512
	vmovups	%xmm7, 528(%rsp)	 #,
	.seh_savexmm	%xmm7, 528
	vmovups	%xmm8, 544(%rsp)	 #,
	.seh_savexmm	%xmm8, 544
	vmovups	%xmm9, 560(%rsp)	 #,
	.seh_savexmm	%xmm9, 560
	vmovups	%xmm10, 576(%rsp)	 #,
	.seh_savexmm	%xmm10, 576
	vmovups	%xmm11, 592(%rsp)	 #,
	.seh_savexmm	%xmm11, 592
	vmovups	%xmm12, 608(%rsp)	 #,
	.seh_savexmm	%xmm12, 608
	vmovups	%xmm13, 624(%rsp)	 #,
	.seh_savexmm	%xmm13, 624
	vmovups	%xmm14, 640(%rsp)	 #,
	.seh_savexmm	%xmm14, 640
	vmovups	%xmm15, 656(%rsp)	 #,
	.seh_savexmm	%xmm15, 656
	.seh_endprologue
 # .\src\main.cpp:1046:     for (int y = thread_num * 2 + offset; y < boid_map->m_ysize; y += 2 * NUM_THREADS) {
	movl	(%r8), %r13d	 # boid_map_14(D)->m_ysize, prephitmp_81
 # .\src\main.cpp:1045: inline void jump_runner(int thread_num, bool offset, const BoidMap *boid_map, const Rules *rules, const BoidList *boid_list) {
	movq	784(%rsp), %rbp	 # boid_list, boid_list
 # .\src\main.cpp:1046:     for (int y = thread_num * 2 + offset; y < boid_map->m_ysize; y += 2 * NUM_THREADS) {
	movzbl	%dl, %edx	 # tmp788, offset
 # .\src\main.cpp:1045: inline void jump_runner(int thread_num, bool offset, const BoidMap *boid_map, const Rules *rules, const BoidList *boid_list) {
	movq	%r9, %r11	 # tmp790, rules
 # .\src\main.cpp:1046:     for (int y = thread_num * 2 + offset; y < boid_map->m_ysize; y += 2 * NUM_THREADS) {
	leal	(%rdx,%rcx,2), %r9d	 #, y
 # .\src\main.cpp:1046:     for (int y = thread_num * 2 + offset; y < boid_map->m_ysize; y += 2 * NUM_THREADS) {
	cmpl	%r13d, %r9d	 # prephitmp_81, y
	jge	.L244	 #,
 # .\src\main.cpp:1006:     for (int x = 0; x < boid_map->m_xsize; x++) {
	movl	4(%r8), %ebx	 # boid_map_14(D)->m_xsize, _20
	movl	%r13d, %esi	 # prephitmp_81, prephitmp_81
	movq	%rbp, %rdi	 # boid_list, boid_list
	movq	%r11, %r10	 # rules, rules
	movq	%r8, %rbp	 # boid_map, boid_map
	movl	%ebx, %r13d	 # _20, _20
.L217:
 # .\src\main.cpp:1006:     for (int x = 0; x < boid_map->m_xsize; x++) {
	testl	%r13d, %r13d	 # _20
	jle	.L244	 #,
	movq	%r10, 776(%rsp)	 # rules, rules
	movl	%esi, %r10d	 # prephitmp_81, prephitmp_81
	movl	%r13d, %ebx	 # _20, _20
	movl	$2, %r12d	 #, ivtmp.1699
	movq	776(%rsp), %rsi	 # rules, rules
	movl	%r9d, %r11d	 # y, y
	movq	%rdi, %r13	 # boid_list, boid_list
.L219:
 # .\src\main.cpp:639:     const auto world_height = map->m_cell_size * map->m_ysize;
	movl	8(%rbp), %r9d	 # boid_map_14(D)->m_cell_size, _23
 # .\src\main.cpp:642:     const Boid cell_to_update = map->get_coord(y, x);
	leal	-2(%r12), %r8d	 #,
	movl	%r11d, %edx	 # y,
	movq	%rbp, %rcx	 # boid_map,
	movl	%r10d, 96(%rsp)	 # prephitmp_81, %sfp
 # .\src\main.cpp:639:     const auto world_height = map->m_cell_size * map->m_ysize;
	movl	%r9d, 64(%rsp)	 # _23, %sfp
 # .\src\main.cpp:642:     const Boid cell_to_update = map->get_coord(y, x);
	movl	%r11d, 32(%rsp)	 # y, %sfp
	call	_ZNK7BoidMap9get_coordEii	 #
 # .\src\main.cpp:643:     if (cell_to_update == -1 ) return;
	movl	32(%rsp), %r11d	 # %sfp, y
	movl	64(%rsp), %r9d	 # %sfp, _23
	cmpl	$-1, %eax	 #, _28
	movl	96(%rsp), %r10d	 # %sfp, prephitmp_81
 # .\src\main.cpp:642:     const Boid cell_to_update = map->get_coord(y, x);
	movl	%eax, %r8d	 # tmp791, _28
 # .\src\main.cpp:643:     if (cell_to_update == -1 ) return;
	je	.L221	 #,
 # .\src\main.cpp:645:     const auto xs = boid_list->m_boid_store->xs;
	movq	0(%r13), %rax	 # boid_list_16(D)->m_boid_store, _29
 # .\src\main.cpp:655:     Boid cell_end = cell_begin + boid_list->m_boid_store->depth[cell_begin];
	movslq	%r8d, %r14	 # _28, ivtmp.1685
 # C:/msys64/ucrt64/lib/gcc/x86_64-w64-mingw32/13.1.0/include/avxintrin.h:1330: 				 __A, __A, __A, __A };
	vbroadcastss	(%rsi), %ymm8	 # rules_15(D)->avoid_distance_squared, _35
	vbroadcastss	12(%rsi), %ymm4	 # rules_15(D)->sight_range_squared, _37
	vbroadcastss	4(%rsi), %ymm1	 # rules_15(D)->avoid_factor, _39
 # .\src\main.cpp:645:     const auto xs = boid_list->m_boid_store->xs;
	movq	(%rax), %rcx	 # _29->xs, xs
 # .\src\main.cpp:647:     const auto vxs = boid_list->m_boid_store->vxs;
	movq	16(%rax), %rdx	 # _29->vxs, vxs
 # .\src\main.cpp:648:     const auto vys = boid_list->m_boid_store->vys;
	movq	24(%rax), %r15	 # _29->vys, vys
 # C:/msys64/ucrt64/lib/gcc/x86_64-w64-mingw32/13.1.0/include/avxintrin.h:1330: 				 __A, __A, __A, __A };
	vmovups	%ymm4, 96(%rsp)	 # _37, %sfp
 # .\src\main.cpp:645:     const auto xs = boid_list->m_boid_store->xs;
	movq	%rcx, 432(%rsp)	 # xs, %sfp
 # .\src\main.cpp:646:     const auto ys = boid_list->m_boid_store->ys;
	movq	8(%rax), %rcx	 # _29->ys, ys
 # .\src\main.cpp:655:     Boid cell_end = cell_begin + boid_list->m_boid_store->depth[cell_begin];
	movq	48(%rax), %rax	 # _29->depth, _29->depth
 # .\src\main.cpp:646:     const auto ys = boid_list->m_boid_store->ys;
	movq	%rcx, 440(%rsp)	 # ys, %sfp
 # .\src\main.cpp:655:     Boid cell_end = cell_begin + boid_list->m_boid_store->depth[cell_begin];
	movl	(%rax,%r14,4), %ecx	 # *_43, cell_end
	addl	%r8d, %ecx	 # _28, cell_end
	movl	%ecx, %eax	 # cell_end, cell_end
 # .\src\main.cpp:657:     for (Boid current_boid = cell_begin; current_boid < cell_end; current_boid += 8) {
	cmpl	%ecx, %r8d	 # cell_end, _28
	jge	.L243	 #,
 # .\src\main.cpp:639:     const auto world_height = map->m_cell_size * map->m_ysize;
	imull	%r9d, %r10d	 # _23, prephitmp_81
	leal	-1(%r11), %ecx	 #, ivtmp.1681
	vmovaps	%ymm1, %ymm5	 # _39, _39
	movq	%r14, %rdi	 # ivtmp.1685, ivtmp.1685
 # .\src\main.cpp:640:     const auto world_width = map->m_cell_size * map->m_xsize;
	imull	%r9d, %ebx	 # _23, world_width
	movl	%ecx, 496(%rsp)	 # ivtmp.1681, %sfp
	leal	2(%r11), %ecx	 #, _862
	movq	%r15, %r14	 # vys, vys
	movl	%r11d, 508(%rsp)	 # y, %sfp
 # .\src\main.cpp:639:     const auto world_height = map->m_cell_size * map->m_ysize;
	movl	%r10d, 492(%rsp)	 # prephitmp_81, %sfp
	movl	%ebx, 500(%rsp)	 # world_width, %sfp
	movl	%eax, 504(%rsp)	 # cell_end, %sfp
	movl	%ecx, 488(%rsp)	 # _862, %sfp
	leal	-3(%r12), %ecx	 #, ivtmp.1673
	movl	%ecx, 428(%rsp)	 # ivtmp.1673, %sfp
	movq	%rdx, %rcx	 # vxs, vxs
	movq	%rsi, %rdx	 # rules, rules
	vmovups	%ymm8, 288(%rsp)	 # _35, %sfp
.L229:
 # C:/msys64/ucrt64/lib/gcc/x86_64-w64-mingw32/13.1.0/include/avxintrin.h:905:   return *(__m256_u *)__P;
	movq	432(%rsp), %rax	 # %sfp, xs
	movl	496(%rsp), %r15d	 # %sfp, ivtmp.1681
 # .\src\main.cpp:669:         __m256 avg_vy_vec = _mm256_set1_ps(0.);
	vxorps	%xmm3, %xmm3, %xmm3	 # avg_vy_vec
	movq	%rdi, 480(%rsp)	 # ivtmp.1685, %sfp
	movq	%rdx, 776(%rsp)	 # rules, rules
 # .\src\main.cpp:668:         __m256 avg_vx_vec = _mm256_set1_ps(0.);
	vmovaps	%ymm3, %ymm1	 #, avg_vx_vec
 # .\src\main.cpp:662:         __m256 sep_x_vec = _mm256_set1_ps(0.);
	vmovaps	%ymm3, %ymm13	 # tmp20, sep_x_vec
	vmovaps	%ymm3, %ymm15	 # avg_vy_vec, avg_vy_vec
 # C:/msys64/ucrt64/lib/gcc/x86_64-w64-mingw32/13.1.0/include/avxintrin.h:905:   return *(__m256_u *)__P;
	vmovups	(%rax,%rdi,4), %ymm4	 # MEM[(__m256_u * {ref-all})xs_30 + ivtmp.1685_861 * 4], _50
	movl	%r15d, %ebx	 # ivtmp.1681, ivtmp.1681
	movq	%rcx, %rdx	 # vxs, vxs
	movq	440(%rsp), %rax	 # %sfp, ys
	vmovups	%ymm5, 448(%rsp)	 # _39, %sfp
	movq	%r14, %r15	 # vys, vys
	vmovups	%ymm4, 32(%rsp)	 # _50, %sfp
	vmovups	(%rax,%rdi,4), %ymm4	 # MEM[(__m256_u * {ref-all})ys_31 + ivtmp.1685_861 * 4], _52
	vmovups	%ymm3, 352(%rsp)	 # sep_x_vec, %sfp
	vmovups	%ymm4, 64(%rsp)	 # _52, %sfp
 # .\src\main.cpp:671:         __m256i isc = _mm256_set1_epi32(0);
	vpxor	%xmm4, %xmm4, %xmm4	 # isc
	vmovdqu	%ymm4, 320(%rsp)	 # isc, %sfp
 # .\src\main.cpp:666:         __m256 avg_y_vec = _mm256_set1_ps(0.);
	vmovaps	%ymm3, %ymm4	 # tmp21, avg_y_vec
	vmovups	%ymm3, 384(%rsp)	 # sep_y_vec, %sfp
.L222:
	movl	428(%rsp), %edi	 # %sfp, ivtmp.1673
 # .\src\main.cpp:675:             Boid row_begin = -1;
	movl	$-1, %r14d	 #, row_begin
	movq	%rdx, 128(%rsp)	 # vxs, %sfp
 # .\src\main.cpp:676:             Boid row_end = -1;
	movl	$-1, %esi	 #, row_end
	vmovups	%ymm13, 160(%rsp)	 # avg_x_vec, %sfp
	vmovups	%ymm4, 192(%rsp)	 # avg_y_vec, %sfp
	movl	%edi, %eax	 # ivtmp.1673, ivtmp.1673
	movl	%r14d, %edi	 # row_begin, row_begin
	vmovups	%ymm1, 224(%rsp)	 # avg_vx_vec, %sfp
	movl	%eax, %r14d	 # ivtmp.1673, ivtmp.1673
	vmovups	%ymm15, 256(%rsp)	 # avg_vy_vec, %sfp
	vzeroupper
.L225:
 # .\src\main.cpp:680:                 Boid current = map->get_coord(y + cy, x + cx);
	movl	%r14d, %r8d	 # ivtmp.1673,
	movl	%ebx, %edx	 # ivtmp.1681,
	movq	%rbp, %rcx	 # boid_map,
	call	_ZNK7BoidMap9get_coordEii	 #
 # .\src\main.cpp:681:                 if (current != -1) {
	cmpl	$-1, %eax	 #, _57
	je	.L223	 #,
 # .\src\main.cpp:684:                     row_end = current + boid_list->m_boid_store->depth[current];
	movq	0(%r13), %rdx	 # boid_list_16(D)->m_boid_store, boid_list_16(D)->m_boid_store
 # .\src\main.cpp:682:                     if (row_begin == -1) row_begin = current;
	cmpl	$-1, %edi	 #, row_begin
 # .\src\main.cpp:684:                     row_end = current + boid_list->m_boid_store->depth[current];
	movslq	%eax, %rcx	 # _57, _57
 # .\src\main.cpp:682:                     if (row_begin == -1) row_begin = current;
	cmove	%eax, %edi	 # row_begin,, _57, row_begin
 # .\src\main.cpp:684:                     row_end = current + boid_list->m_boid_store->depth[current];
	movq	48(%rdx), %rdx	 # _59->depth, _59->depth
 # .\src\main.cpp:684:                     row_end = current + boid_list->m_boid_store->depth[current];
	addl	(%rdx,%rcx,4), %eax	 # *_63, _57
	movl	%eax, %esi	 # _57, row_end
.L223:
 # .\src\main.cpp:679:             for (int cx = -1; cx <= 1; cx++) {
	addl	$1, %r14d	 #, ivtmp.1673
	cmpl	%r14d, %r12d	 # ivtmp.1673, ivtmp.1699
	jne	.L225	 #,
 # .\src\main.cpp:689:             for (Boid nearby_boid = row_begin; nearby_boid < row_end; nearby_boid += 8) {
	movslq	%edi, %r14	 # row_begin,
	movq	128(%rsp), %rdx	 # %sfp, vxs
	vmovups	160(%rsp), %ymm13	 # %sfp, avg_x_vec
	vmovups	192(%rsp), %ymm4	 # %sfp, avg_y_vec
	vmovups	224(%rsp), %ymm1	 # %sfp, avg_vx_vec
	vmovups	256(%rsp), %ymm15	 # %sfp, avg_vy_vec
	cmpl	%esi, %r14d	 # row_end, row_begin
	jge	.L226	 #,
	.p2align 4,,10
	.p2align 3
.L227:
 # C:/msys64/ucrt64/lib/gcc/x86_64-w64-mingw32/13.1.0/include/avxintrin.h:905:   return *(__m256_u *)__P;
	movq	432(%rsp), %rax	 # %sfp, xs
 # C:/msys64/ucrt64/lib/gcc/x86_64-w64-mingw32/13.1.0/include/avxintrin.h:368:   return (__m256) ((__v8sf)__A - (__v8sf)__B);
	vmovups	32(%rsp), %ymm12	 # %sfp, _50
 # C:/msys64/ucrt64/lib/gcc/x86_64-w64-mingw32/13.1.0/include/avxintrin.h:406:   return (__m256) __builtin_ia32_cmpps256 ((__v8sf)__X, (__v8sf)__Y,
	vmovups	288(%rsp), %ymm11	 # %sfp, _35
 # C:/msys64/ucrt64/lib/gcc/x86_64-w64-mingw32/13.1.0/include/avxintrin.h:368:   return (__m256) ((__v8sf)__A - (__v8sf)__B);
	vmovups	64(%rsp), %ymm6	 # %sfp, _52
 # C:/msys64/ucrt64/lib/gcc/x86_64-w64-mingw32/13.1.0/include/avxintrin.h:905:   return *(__m256_u *)__P;
	vmovups	(%rax,%r14,4), %ymm3	 # MEM[(__m256_u * {ref-all})xs_30 + ivtmp.1656_844 * 4], MEM[(__m256_u * {ref-all})xs_30 + ivtmp.1656_844 * 4]
	movq	440(%rsp), %rax	 # %sfp, ys
 # C:/msys64/ucrt64/lib/gcc/x86_64-w64-mingw32/13.1.0/include/avxintrin.h:368:   return (__m256) ((__v8sf)__A - (__v8sf)__B);
	vsubps	%ymm3, %ymm12, %ymm2	 # MEM[(__m256_u * {ref-all})xs_30 + ivtmp.1656_844 * 4], _50, _235
 # C:/msys64/ucrt64/lib/gcc/x86_64-w64-mingw32/13.1.0/include/avxintrin.h:905:   return *(__m256_u *)__P;
	vmovups	(%rax,%r14,4), %ymm5	 # MEM[(__m256_u * {ref-all})ys_31 + ivtmp.1656_844 * 4], MEM[(__m256_u * {ref-all})ys_31 + ivtmp.1656_844 * 4]
 # C:/msys64/ucrt64/lib/gcc/x86_64-w64-mingw32/13.1.0/include/avxintrin.h:368:   return (__m256) ((__v8sf)__A - (__v8sf)__B);
	vsubps	%ymm5, %ymm6, %ymm8	 # MEM[(__m256_u * {ref-all})ys_31 + ivtmp.1656_844 * 4], _52, _236
 # C:/msys64/ucrt64/lib/gcc/x86_64-w64-mingw32/13.1.0/include/avxintrin.h:320:   return (__m256) ((__v8sf)__A * (__v8sf)__B);
	vmulps	%ymm2, %ymm2, %ymm6	 # _235, _235, tmp450
 # C:/msys64/ucrt64/lib/gcc/x86_64-w64-mingw32/13.1.0/include/avxintrin.h:149:   return (__m256) ((__v8sf)__A + (__v8sf)__B);
	vfmadd231ps	%ymm8, %ymm8, %ymm6	 # _236, _236, _218
 # C:/msys64/ucrt64/lib/gcc/x86_64-w64-mingw32/13.1.0/include/avxintrin.h:406:   return (__m256) __builtin_ia32_cmpps256 ((__v8sf)__X, (__v8sf)__Y,
	vcmpps	$1, %ymm11, %ymm6, %ymm7	 #, _35, _218, tmp454
	vcmpps	$1, 96(%rsp), %ymm6, %ymm0	 #, %sfp, _218, tmp451
 # C:/msys64/ucrt64/lib/gcc/x86_64-w64-mingw32/13.1.0/include/avxintrin.h:368:   return (__m256) ((__v8sf)__A - (__v8sf)__B);
	vsubps	%ymm6, %ymm11, %ymm6	 # _218, _35, _223
 # C:/msys64/ucrt64/lib/gcc/x86_64-w64-mingw32/13.1.0/include/avxintrin.h:320:   return (__m256) ((__v8sf)__A * (__v8sf)__B);
	vmulps	%ymm6, %ymm6, %ymm6	 # _223, _223, _224
 # C:/msys64/ucrt64/lib/gcc/x86_64-w64-mingw32/13.1.0/include/avxintrin.h:186:   return (__m256) __builtin_ia32_andnps256 ((__v8sf)__A, (__v8sf)__B);
	vandnps	%ymm0, %ymm7, %ymm0	 # tmp451, tmp454, tmp457
 # C:/msys64/ucrt64/lib/gcc/x86_64-w64-mingw32/13.1.0/include/avxintrin.h:174:   return (__m256) __builtin_ia32_andps256 ((__v8sf)__A, (__v8sf)__B);
	vandps	.LC3(%rip), %ymm0, %ymm0	 #, tmp457, tmp458
 # C:/msys64/ucrt64/lib/gcc/x86_64-w64-mingw32/13.1.0/include/fmaintrin.h:65:   return (__m256)__builtin_ia32_vfmaddps256 ((__v8sf)__A, (__v8sf)__B,
	vfmadd231ps	(%rdx,%r14,4), %ymm0, %ymm1	 # MEM[(__m256_u * {ref-all})vxs_32 + ivtmp.1656_844 * 4], tmp458, tmp465
	vfmadd231ps	(%r15,%r14,4), %ymm0, %ymm15	 # MEM[(__m256_u * {ref-all})vys_33 + ivtmp.1656_844 * 4], tmp458, tmp466
	vfmadd231ps	%ymm3, %ymm0, %ymm13	 # MEM[(__m256_u * {ref-all})xs_30 + ivtmp.1656_844 * 4], tmp458, tmp467
	vfmadd231ps	%ymm5, %ymm0, %ymm4	 # MEM[(__m256_u * {ref-all})ys_31 + ivtmp.1656_844 * 4], tmp458, tmp468
 # C:/msys64/ucrt64/lib/gcc/x86_64-w64-mingw32/13.1.0/include/avxintrin.h:475:   return (__m256i)__builtin_ia32_cvtps2dq256 ((__v8sf) __A);
	vcvtps2dq	%ymm0, %ymm0	 # tmp458, tmp469
	vmovdqu	%ymm0, 128(%rsp)	 # tmp469, %sfp
 # C:/msys64/ucrt64/lib/gcc/x86_64-w64-mingw32/13.1.0/include/avx2intrin.h:1065:   return (__m256) __builtin_ia32_permvarsf256 ((__v8sf)__X, (__v8si)__Y);
	vmovdqu	.LC5(%rip), %ymm0	 #, tmp1060
 # C:/msys64/ucrt64/lib/gcc/x86_64-w64-mingw32/13.1.0/include/avxintrin.h:320:   return (__m256) ((__v8sf)__A * (__v8sf)__B);
	vmulps	%ymm2, %ymm6, %ymm2	 # _235, _224, tmp461
 # C:/msys64/ucrt64/lib/gcc/x86_64-w64-mingw32/13.1.0/include/avx2intrin.h:1065:   return (__m256) __builtin_ia32_permvarsf256 ((__v8sf)__X, (__v8si)__Y);
	vpermps	%ymm3, %ymm0, %ymm0	 # MEM[(__m256_u * {ref-all})xs_30 + ivtmp.1656_844 * 4], tmp1060, tmp471
 # C:/msys64/ucrt64/lib/gcc/x86_64-w64-mingw32/13.1.0/include/avxintrin.h:368:   return (__m256) ((__v8sf)__A - (__v8sf)__B);
	vmovups	64(%rsp), %ymm3	 # %sfp, _52
 # C:/msys64/ucrt64/lib/gcc/x86_64-w64-mingw32/13.1.0/include/avxintrin.h:320:   return (__m256) ((__v8sf)__A * (__v8sf)__B);
	vmulps	%ymm8, %ymm6, %ymm6	 # _236, _224, tmp463
 # C:/msys64/ucrt64/lib/gcc/x86_64-w64-mingw32/13.1.0/include/avxintrin.h:174:   return (__m256) __builtin_ia32_andps256 ((__v8sf)__A, (__v8sf)__B);
	vandps	%ymm2, %ymm7, %ymm2	 # tmp461, tmp454, tmp462
 # C:/msys64/ucrt64/lib/gcc/x86_64-w64-mingw32/13.1.0/include/avxintrin.h:149:   return (__m256) ((__v8sf)__A + (__v8sf)__B);
	vaddps	352(%rsp), %ymm2, %ymm2	 # %sfp, tmp462, _248
 # C:/msys64/ucrt64/lib/gcc/x86_64-w64-mingw32/13.1.0/include/avxintrin.h:174:   return (__m256) __builtin_ia32_andps256 ((__v8sf)__A, (__v8sf)__B);
	vandps	%ymm6, %ymm7, %ymm7	 # tmp463, tmp454, tmp464
 # C:/msys64/ucrt64/lib/gcc/x86_64-w64-mingw32/13.1.0/include/avxintrin.h:149:   return (__m256) ((__v8sf)__A + (__v8sf)__B);
	vaddps	384(%rsp), %ymm7, %ymm6	 # %sfp, tmp464, _251
 # C:/msys64/ucrt64/lib/gcc/x86_64-w64-mingw32/13.1.0/include/avx2intrin.h:1065:   return (__m256) __builtin_ia32_permvarsf256 ((__v8sf)__X, (__v8si)__Y);
	vmovdqu	.LC5(%rip), %ymm7	 #, tmp1059
	vpermps	(%rdx,%r14,4), %ymm7, %ymm10	 # MEM[(__m256_u * {ref-all})vxs_32 + ivtmp.1656_844 * 4], tmp1058, tmp475
	vpermps	(%r15,%r14,4), %ymm7, %ymm9	 # MEM[(__m256_u * {ref-all})vys_33 + ivtmp.1656_844 * 4], tmp1057, tmp477
 # .\src\main.cpp:689:             for (Boid nearby_boid = row_begin; nearby_boid < row_end; nearby_boid += 8) {
	addq	$8, %r14	 #, ivtmp.1656
 # C:/msys64/ucrt64/lib/gcc/x86_64-w64-mingw32/13.1.0/include/avx2intrin.h:1065:   return (__m256) __builtin_ia32_permvarsf256 ((__v8sf)__X, (__v8si)__Y);
	vpermps	%ymm5, %ymm7, %ymm14	 # MEM[(__m256_u * {ref-all})ys_31 + ivtmp.1656_844 * 4], tmp1059, tmp473
 # C:/msys64/ucrt64/lib/gcc/x86_64-w64-mingw32/13.1.0/include/avxintrin.h:368:   return (__m256) ((__v8sf)__A - (__v8sf)__B);
	vsubps	%ymm0, %ymm12, %ymm7	 # tmp471, _50, _278
 # C:/msys64/ucrt64/lib/gcc/x86_64-w64-mingw32/13.1.0/include/avxintrin.h:406:   return (__m256) __builtin_ia32_cmpps256 ((__v8sf)__X, (__v8sf)__Y,
	vmovups	288(%rsp), %ymm12	 # %sfp, _35
 # C:/msys64/ucrt64/lib/gcc/x86_64-w64-mingw32/13.1.0/include/avxintrin.h:368:   return (__m256) ((__v8sf)__A - (__v8sf)__B);
	vsubps	%ymm14, %ymm3, %ymm11	 # tmp473, _52, _279
 # C:/msys64/ucrt64/lib/gcc/x86_64-w64-mingw32/13.1.0/include/avxintrin.h:320:   return (__m256) ((__v8sf)__A * (__v8sf)__B);
	vmulps	%ymm7, %ymm7, %ymm5	 # _278, _278, tmp479
 # C:/msys64/ucrt64/lib/gcc/x86_64-w64-mingw32/13.1.0/include/avxintrin.h:149:   return (__m256) ((__v8sf)__A + (__v8sf)__B);
	vfmadd231ps	%ymm11, %ymm11, %ymm5	 # _279, _279, _282
 # C:/msys64/ucrt64/lib/gcc/x86_64-w64-mingw32/13.1.0/include/avxintrin.h:406:   return (__m256) __builtin_ia32_cmpps256 ((__v8sf)__X, (__v8sf)__Y,
	vcmpps	$1, %ymm12, %ymm5, %ymm8	 #, _35, _282, tmp483
	vcmpps	$1, 96(%rsp), %ymm5, %ymm3	 #, %sfp, _282, tmp480
 # C:/msys64/ucrt64/lib/gcc/x86_64-w64-mingw32/13.1.0/include/avxintrin.h:368:   return (__m256) ((__v8sf)__A - (__v8sf)__B);
	vsubps	%ymm5, %ymm12, %ymm5	 # _282, _35, _287
 # C:/msys64/ucrt64/lib/gcc/x86_64-w64-mingw32/13.1.0/include/avxintrin.h:320:   return (__m256) ((__v8sf)__A * (__v8sf)__B);
	vmulps	%ymm5, %ymm5, %ymm5	 # _287, _287, _288
 # C:/msys64/ucrt64/lib/gcc/x86_64-w64-mingw32/13.1.0/include/avxintrin.h:186:   return (__m256) __builtin_ia32_andnps256 ((__v8sf)__A, (__v8sf)__B);
	vandnps	%ymm3, %ymm8, %ymm3	 # tmp480, tmp483, tmp486
 # C:/msys64/ucrt64/lib/gcc/x86_64-w64-mingw32/13.1.0/include/avxintrin.h:174:   return (__m256) __builtin_ia32_andps256 ((__v8sf)__A, (__v8sf)__B);
	vandps	.LC3(%rip), %ymm3, %ymm3	 #, tmp486, tmp487
 # C:/msys64/ucrt64/lib/gcc/x86_64-w64-mingw32/13.1.0/include/fmaintrin.h:65:   return (__m256)__builtin_ia32_vfmaddps256 ((__v8sf)__A, (__v8sf)__B,
	vfmadd231ps	%ymm10, %ymm3, %ymm1	 # tmp475, tmp487, tmp465
	vfmadd231ps	%ymm9, %ymm3, %ymm15	 # tmp477, tmp487, tmp466
	vfmadd231ps	%ymm0, %ymm3, %ymm13	 # tmp471, tmp487, tmp496
	vfmadd231ps	%ymm14, %ymm3, %ymm4	 # tmp473, tmp487, tmp497
 # C:/msys64/ucrt64/lib/gcc/x86_64-w64-mingw32/13.1.0/include/avxintrin.h:475:   return (__m256i)__builtin_ia32_cvtps2dq256 ((__v8sf) __A);
	vcvtps2dq	%ymm3, %ymm3	 # tmp487, tmp498
 # C:/msys64/ucrt64/lib/gcc/x86_64-w64-mingw32/13.1.0/include/avxintrin.h:320:   return (__m256) ((__v8sf)__A * (__v8sf)__B);
	vmulps	%ymm5, %ymm7, %ymm7	 # _288, _278, tmp490
	vmulps	%ymm5, %ymm11, %ymm11	 # _288, _279, tmp492
 # C:/msys64/ucrt64/lib/gcc/x86_64-w64-mingw32/13.1.0/include/avxintrin.h:174:   return (__m256) __builtin_ia32_andps256 ((__v8sf)__A, (__v8sf)__B);
	vandps	%ymm7, %ymm8, %ymm7	 # tmp490, tmp483, tmp491
 # C:/msys64/ucrt64/lib/gcc/x86_64-w64-mingw32/13.1.0/include/avxintrin.h:149:   return (__m256) ((__v8sf)__A + (__v8sf)__B);
	vaddps	%ymm7, %ymm2, %ymm7	 # tmp491, _248, _291
 # C:/msys64/ucrt64/lib/gcc/x86_64-w64-mingw32/13.1.0/include/avxintrin.h:174:   return (__m256) __builtin_ia32_andps256 ((__v8sf)__A, (__v8sf)__B);
	vandps	%ymm11, %ymm8, %ymm5	 # tmp492, tmp483, tmp493
 # C:/msys64/ucrt64/lib/gcc/x86_64-w64-mingw32/13.1.0/include/fmaintrin.h:65:   return (__m256)__builtin_ia32_vfmaddps256 ((__v8sf)__A, (__v8sf)__B,
	vmovaps	%ymm15, %ymm8	 # tmp466, tmp495
 # C:/msys64/ucrt64/lib/gcc/x86_64-w64-mingw32/13.1.0/include/avx2intrin.h:1065:   return (__m256) __builtin_ia32_permvarsf256 ((__v8sf)__X, (__v8si)__Y);
	vmovdqu	.LC5(%rip), %ymm11	 #, tmp1051
	vpaddd	128(%rsp), %ymm3, %ymm2	 # %sfp, tmp498, _303
 # C:/msys64/ucrt64/lib/gcc/x86_64-w64-mingw32/13.1.0/include/avxintrin.h:149:   return (__m256) ((__v8sf)__A + (__v8sf)__B);
	vaddps	%ymm5, %ymm6, %ymm5	 # tmp493, _251, _294
 # C:/msys64/ucrt64/lib/gcc/x86_64-w64-mingw32/13.1.0/include/fmaintrin.h:65:   return (__m256)__builtin_ia32_vfmaddps256 ((__v8sf)__A, (__v8sf)__B,
	vmovaps	%ymm1, %ymm6	 # tmp465, tmp494
 # C:/msys64/ucrt64/lib/gcc/x86_64-w64-mingw32/13.1.0/include/avx2intrin.h:1065:   return (__m256) __builtin_ia32_permvarsf256 ((__v8sf)__X, (__v8si)__Y);
	vpermps	%ymm9, %ymm11, %ymm3	 # tmp477, tmp1051, tmp506
 # C:/msys64/ucrt64/lib/gcc/x86_64-w64-mingw32/13.1.0/include/avxintrin.h:368:   return (__m256) ((__v8sf)__A - (__v8sf)__B);
	vmovups	64(%rsp), %ymm9	 # %sfp, _52
	vmovdqu	%ymm2, 128(%rsp)	 # _303, %sfp
 # C:/msys64/ucrt64/lib/gcc/x86_64-w64-mingw32/13.1.0/include/avx2intrin.h:1065:   return (__m256) __builtin_ia32_permvarsf256 ((__v8sf)__X, (__v8si)__Y);
	vmovdqu	.LC5(%rip), %ymm2	 #, tmp1054
	vpermps	%ymm0, %ymm2, %ymm1	 # tmp471, tmp1054, tmp500
	vpermps	%ymm14, %ymm2, %ymm0	 # tmp473, tmp1053, tmp502
 # C:/msys64/ucrt64/lib/gcc/x86_64-w64-mingw32/13.1.0/include/avxintrin.h:368:   return (__m256) ((__v8sf)__A - (__v8sf)__B);
	vmovups	32(%rsp), %ymm14	 # %sfp, _50
 # C:/msys64/ucrt64/lib/gcc/x86_64-w64-mingw32/13.1.0/include/avx2intrin.h:1065:   return (__m256) __builtin_ia32_permvarsf256 ((__v8sf)__X, (__v8si)__Y);
	vpermps	%ymm10, %ymm2, %ymm2	 # tmp475, tmp1052, tmp504
 # C:/msys64/ucrt64/lib/gcc/x86_64-w64-mingw32/13.1.0/include/avxintrin.h:368:   return (__m256) ((__v8sf)__A - (__v8sf)__B);
	vsubps	%ymm1, %ymm14, %ymm15	 # tmp500, _50, _321
	vsubps	%ymm0, %ymm9, %ymm14	 # tmp502, _52, _322
 # C:/msys64/ucrt64/lib/gcc/x86_64-w64-mingw32/13.1.0/include/avxintrin.h:320:   return (__m256) ((__v8sf)__A * (__v8sf)__B);
	vmulps	%ymm15, %ymm15, %ymm10	 # _321, _321, tmp508
 # C:/msys64/ucrt64/lib/gcc/x86_64-w64-mingw32/13.1.0/include/avxintrin.h:149:   return (__m256) ((__v8sf)__A + (__v8sf)__B);
	vfmadd231ps	%ymm14, %ymm14, %ymm10	 # _322, _322, _325
 # C:/msys64/ucrt64/lib/gcc/x86_64-w64-mingw32/13.1.0/include/avxintrin.h:406:   return (__m256) __builtin_ia32_cmpps256 ((__v8sf)__X, (__v8sf)__Y,
	vcmpps	$1, %ymm12, %ymm10, %ymm11	 #, _35, _325, tmp512
	vcmpps	$1, 96(%rsp), %ymm10, %ymm9	 #, %sfp, _325, tmp509
 # C:/msys64/ucrt64/lib/gcc/x86_64-w64-mingw32/13.1.0/include/avxintrin.h:368:   return (__m256) ((__v8sf)__A - (__v8sf)__B);
	vsubps	%ymm10, %ymm12, %ymm10	 # _325, _35, _330
 # C:/msys64/ucrt64/lib/gcc/x86_64-w64-mingw32/13.1.0/include/avxintrin.h:320:   return (__m256) ((__v8sf)__A * (__v8sf)__B);
	vmulps	%ymm10, %ymm10, %ymm10	 # _330, _330, _331
 # C:/msys64/ucrt64/lib/gcc/x86_64-w64-mingw32/13.1.0/include/avxintrin.h:186:   return (__m256) __builtin_ia32_andnps256 ((__v8sf)__A, (__v8sf)__B);
	vandnps	%ymm9, %ymm11, %ymm9	 # tmp509, tmp512, tmp515
 # C:/msys64/ucrt64/lib/gcc/x86_64-w64-mingw32/13.1.0/include/avxintrin.h:174:   return (__m256) __builtin_ia32_andps256 ((__v8sf)__A, (__v8sf)__B);
	vandps	.LC3(%rip), %ymm9, %ymm9	 #, tmp515, tmp516
 # C:/msys64/ucrt64/lib/gcc/x86_64-w64-mingw32/13.1.0/include/fmaintrin.h:65:   return (__m256)__builtin_ia32_vfmaddps256 ((__v8sf)__A, (__v8sf)__B,
	vfmadd231ps	%ymm1, %ymm9, %ymm13	 # tmp500, tmp516, tmp525
	vfmadd231ps	%ymm2, %ymm9, %ymm6	 # tmp504, tmp516, tmp523
	vfmadd231ps	%ymm3, %ymm9, %ymm8	 # tmp506, tmp516, tmp524
	vfmadd231ps	%ymm0, %ymm9, %ymm4	 # tmp502, tmp516, tmp526
 # C:/msys64/ucrt64/lib/gcc/x86_64-w64-mingw32/13.1.0/include/avxintrin.h:320:   return (__m256) ((__v8sf)__A * (__v8sf)__B);
	vmulps	%ymm10, %ymm14, %ymm14	 # _331, _322, tmp521
	vmulps	%ymm10, %ymm15, %ymm15	 # _331, _321, tmp519
 # C:/msys64/ucrt64/lib/gcc/x86_64-w64-mingw32/13.1.0/include/avxintrin.h:475:   return (__m256i)__builtin_ia32_cvtps2dq256 ((__v8sf) __A);
	vcvtps2dq	%ymm9, %ymm10	 # tmp516, tmp527
	vmovdqu	%ymm10, 160(%rsp)	 # tmp527, %sfp
 # C:/msys64/ucrt64/lib/gcc/x86_64-w64-mingw32/13.1.0/include/avxintrin.h:174:   return (__m256) __builtin_ia32_andps256 ((__v8sf)__A, (__v8sf)__B);
	vandps	%ymm15, %ymm11, %ymm15	 # tmp519, tmp512, tmp520
	vandps	%ymm14, %ymm11, %ymm11	 # tmp521, tmp512, tmp522
 # C:/msys64/ucrt64/lib/gcc/x86_64-w64-mingw32/13.1.0/include/avxintrin.h:149:   return (__m256) ((__v8sf)__A + (__v8sf)__B);
	vaddps	%ymm11, %ymm5, %ymm5	 # tmp522, _294, _337
 # C:/msys64/ucrt64/lib/gcc/x86_64-w64-mingw32/13.1.0/include/avx2intrin.h:1065:   return (__m256) __builtin_ia32_permvarsf256 ((__v8sf)__X, (__v8si)__Y);
	vmovdqu	.LC5(%rip), %ymm11	 #, tmp1049
 # C:/msys64/ucrt64/lib/gcc/x86_64-w64-mingw32/13.1.0/include/avxintrin.h:149:   return (__m256) ((__v8sf)__A + (__v8sf)__B);
	vaddps	%ymm15, %ymm7, %ymm7	 # tmp520, _291, _334
 # C:/msys64/ucrt64/lib/gcc/x86_64-w64-mingw32/13.1.0/include/avxintrin.h:368:   return (__m256) ((__v8sf)__A - (__v8sf)__B);
	vmovups	32(%rsp), %ymm14	 # %sfp, _50
	vmovups	64(%rsp), %ymm9	 # %sfp, _52
 # C:/msys64/ucrt64/lib/gcc/x86_64-w64-mingw32/13.1.0/include/avx2intrin.h:1065:   return (__m256) __builtin_ia32_permvarsf256 ((__v8sf)__X, (__v8si)__Y);
	vpermps	%ymm1, %ymm11, %ymm1	 # tmp500, tmp1049, tmp529
	vpermps	%ymm0, %ymm11, %ymm0	 # tmp502, tmp1048, tmp531
	vpermps	%ymm2, %ymm11, %ymm2	 # tmp504, tmp1047, tmp533
	vpermps	%ymm3, %ymm11, %ymm3	 # tmp506, tmp1046, tmp535
 # C:/msys64/ucrt64/lib/gcc/x86_64-w64-mingw32/13.1.0/include/avxintrin.h:368:   return (__m256) ((__v8sf)__A - (__v8sf)__B);
	vsubps	%ymm1, %ymm14, %ymm11	 # tmp529, _50, _364
	vsubps	%ymm0, %ymm9, %ymm15	 # tmp531, _52, _365
 # C:/msys64/ucrt64/lib/gcc/x86_64-w64-mingw32/13.1.0/include/avxintrin.h:320:   return (__m256) ((__v8sf)__A * (__v8sf)__B);
	vmulps	%ymm11, %ymm11, %ymm10	 # _364, _364, tmp537
 # C:/msys64/ucrt64/lib/gcc/x86_64-w64-mingw32/13.1.0/include/avxintrin.h:149:   return (__m256) ((__v8sf)__A + (__v8sf)__B);
	vfmadd231ps	%ymm15, %ymm15, %ymm10	 # _365, _365, _368
 # C:/msys64/ucrt64/lib/gcc/x86_64-w64-mingw32/13.1.0/include/avxintrin.h:406:   return (__m256) __builtin_ia32_cmpps256 ((__v8sf)__X, (__v8sf)__Y,
	vcmpps	$1, %ymm12, %ymm10, %ymm14	 #, _35, _368, tmp541
	vcmpps	$1, 96(%rsp), %ymm10, %ymm9	 #, %sfp, _368, tmp538
 # C:/msys64/ucrt64/lib/gcc/x86_64-w64-mingw32/13.1.0/include/avxintrin.h:368:   return (__m256) ((__v8sf)__A - (__v8sf)__B);
	vsubps	%ymm10, %ymm12, %ymm10	 # _368, _35, _373
 # C:/msys64/ucrt64/lib/gcc/x86_64-w64-mingw32/13.1.0/include/avxintrin.h:320:   return (__m256) ((__v8sf)__A * (__v8sf)__B);
	vmulps	%ymm10, %ymm10, %ymm10	 # _373, _373, _374
 # C:/msys64/ucrt64/lib/gcc/x86_64-w64-mingw32/13.1.0/include/avxintrin.h:186:   return (__m256) __builtin_ia32_andnps256 ((__v8sf)__A, (__v8sf)__B);
	vandnps	%ymm9, %ymm14, %ymm9	 # tmp538, tmp541, tmp544
 # C:/msys64/ucrt64/lib/gcc/x86_64-w64-mingw32/13.1.0/include/avxintrin.h:174:   return (__m256) __builtin_ia32_andps256 ((__v8sf)__A, (__v8sf)__B);
	vandps	.LC3(%rip), %ymm9, %ymm9	 #, tmp544, tmp545
 # C:/msys64/ucrt64/lib/gcc/x86_64-w64-mingw32/13.1.0/include/fmaintrin.h:65:   return (__m256)__builtin_ia32_vfmaddps256 ((__v8sf)__A, (__v8sf)__B,
	vfmadd231ps	%ymm2, %ymm9, %ymm6	 # tmp533, tmp545, tmp552
	vfmadd231ps	%ymm3, %ymm9, %ymm8	 # tmp535, tmp545, tmp553
	vfmadd231ps	%ymm1, %ymm9, %ymm13	 # tmp529, tmp545, tmp554
	vfmadd231ps	%ymm0, %ymm9, %ymm4	 # tmp531, tmp545, tmp555
 # C:/msys64/ucrt64/lib/gcc/x86_64-w64-mingw32/13.1.0/include/avxintrin.h:475:   return (__m256i)__builtin_ia32_cvtps2dq256 ((__v8sf) __A);
	vcvtps2dq	%ymm9, %ymm9	 # tmp545, tmp556
 # C:/msys64/ucrt64/lib/gcc/x86_64-w64-mingw32/13.1.0/include/avxintrin.h:320:   return (__m256) ((__v8sf)__A * (__v8sf)__B);
	vmulps	%ymm10, %ymm15, %ymm15	 # _374, _365, tmp550
	vmulps	%ymm10, %ymm11, %ymm11	 # _374, _364, tmp548
 # C:/msys64/ucrt64/lib/gcc/x86_64-w64-mingw32/13.1.0/include/avxintrin.h:174:   return (__m256) __builtin_ia32_andps256 ((__v8sf)__A, (__v8sf)__B);
	vandps	%ymm11, %ymm14, %ymm11	 # tmp548, tmp541, tmp549
	vandps	%ymm15, %ymm14, %ymm14	 # tmp550, tmp541, tmp551
 # C:/msys64/ucrt64/lib/gcc/x86_64-w64-mingw32/13.1.0/include/avxintrin.h:149:   return (__m256) ((__v8sf)__A + (__v8sf)__B);
	vaddps	%ymm14, %ymm5, %ymm5	 # tmp551, _337, _380
 # C:/msys64/ucrt64/lib/gcc/x86_64-w64-mingw32/13.1.0/include/avx2intrin.h:1065:   return (__m256) __builtin_ia32_permvarsf256 ((__v8sf)__X, (__v8si)__Y);
	vmovdqu	.LC5(%rip), %ymm14	 #, tmp1042
 # C:/msys64/ucrt64/lib/gcc/x86_64-w64-mingw32/13.1.0/include/avxintrin.h:149:   return (__m256) ((__v8sf)__A + (__v8sf)__B);
	vaddps	%ymm11, %ymm7, %ymm11	 # tmp549, _334, _377
	vpaddd	160(%rsp), %ymm9, %ymm7	 # %sfp, tmp556, tmp558
	vpaddd	128(%rsp), %ymm7, %ymm15	 # %sfp, tmp558, _310
 # C:/msys64/ucrt64/lib/gcc/x86_64-w64-mingw32/13.1.0/include/avx2intrin.h:1065:   return (__m256) __builtin_ia32_permvarsf256 ((__v8sf)__X, (__v8si)__Y);
	vpermps	%ymm1, %ymm14, %ymm1	 # tmp529, tmp1042, tmp559
	vpermps	%ymm0, %ymm14, %ymm0	 # tmp531, tmp1041, tmp561
	vpermps	%ymm2, %ymm14, %ymm2	 # tmp533, tmp1040, tmp563
 # C:/msys64/ucrt64/lib/gcc/x86_64-w64-mingw32/13.1.0/include/avxintrin.h:368:   return (__m256) ((__v8sf)__A - (__v8sf)__B);
	vmovups	64(%rsp), %ymm7	 # %sfp, _52
	vmovdqu	%ymm15, 128(%rsp)	 # _310, %sfp
 # C:/msys64/ucrt64/lib/gcc/x86_64-w64-mingw32/13.1.0/include/avx2intrin.h:1065:   return (__m256) __builtin_ia32_permvarsf256 ((__v8sf)__X, (__v8si)__Y);
	vpermps	%ymm3, %ymm14, %ymm3	 # tmp535, tmp1039, tmp565
 # C:/msys64/ucrt64/lib/gcc/x86_64-w64-mingw32/13.1.0/include/avxintrin.h:368:   return (__m256) ((__v8sf)__A - (__v8sf)__B);
	vmovups	32(%rsp), %ymm14	 # %sfp, _50
	vsubps	%ymm0, %ymm7, %ymm15	 # tmp561, _52, _408
	vsubps	%ymm1, %ymm14, %ymm9	 # tmp559, _50, _407
 # C:/msys64/ucrt64/lib/gcc/x86_64-w64-mingw32/13.1.0/include/avxintrin.h:320:   return (__m256) ((__v8sf)__A * (__v8sf)__B);
	vmulps	%ymm9, %ymm9, %ymm10	 # _407, _407, tmp567
 # C:/msys64/ucrt64/lib/gcc/x86_64-w64-mingw32/13.1.0/include/avxintrin.h:149:   return (__m256) ((__v8sf)__A + (__v8sf)__B);
	vfmadd231ps	%ymm15, %ymm15, %ymm10	 # _408, _408, _411
 # C:/msys64/ucrt64/lib/gcc/x86_64-w64-mingw32/13.1.0/include/avxintrin.h:406:   return (__m256) __builtin_ia32_cmpps256 ((__v8sf)__X, (__v8sf)__Y,
	vcmpps	$1, %ymm12, %ymm10, %ymm14	 #, _35, _411, tmp571
	vcmpps	$1, 96(%rsp), %ymm10, %ymm7	 #, %sfp, _411, tmp568
 # C:/msys64/ucrt64/lib/gcc/x86_64-w64-mingw32/13.1.0/include/avxintrin.h:368:   return (__m256) ((__v8sf)__A - (__v8sf)__B);
	vsubps	%ymm10, %ymm12, %ymm10	 # _411, _35, _416
 # C:/msys64/ucrt64/lib/gcc/x86_64-w64-mingw32/13.1.0/include/avxintrin.h:320:   return (__m256) ((__v8sf)__A * (__v8sf)__B);
	vmulps	%ymm10, %ymm10, %ymm10	 # _416, _416, _417
 # C:/msys64/ucrt64/lib/gcc/x86_64-w64-mingw32/13.1.0/include/avxintrin.h:186:   return (__m256) __builtin_ia32_andnps256 ((__v8sf)__A, (__v8sf)__B);
	vandnps	%ymm7, %ymm14, %ymm7	 # tmp568, tmp571, tmp574
 # C:/msys64/ucrt64/lib/gcc/x86_64-w64-mingw32/13.1.0/include/avxintrin.h:174:   return (__m256) __builtin_ia32_andps256 ((__v8sf)__A, (__v8sf)__B);
	vandps	.LC3(%rip), %ymm7, %ymm7	 #, tmp574, tmp575
 # C:/msys64/ucrt64/lib/gcc/x86_64-w64-mingw32/13.1.0/include/fmaintrin.h:65:   return (__m256)__builtin_ia32_vfmaddps256 ((__v8sf)__A, (__v8sf)__B,
	vfmadd231ps	%ymm1, %ymm7, %ymm13	 # tmp559, tmp575, tmp584
	vfmadd231ps	%ymm2, %ymm7, %ymm6	 # tmp563, tmp575, tmp582
	vfmadd231ps	%ymm3, %ymm7, %ymm8	 # tmp565, tmp575, tmp583
	vfmadd231ps	%ymm0, %ymm7, %ymm4	 # tmp561, tmp575, tmp585
 # C:/msys64/ucrt64/lib/gcc/x86_64-w64-mingw32/13.1.0/include/avxintrin.h:320:   return (__m256) ((__v8sf)__A * (__v8sf)__B);
	vmulps	%ymm10, %ymm9, %ymm9	 # _417, _407, tmp578
	vmulps	%ymm10, %ymm15, %ymm15	 # _417, _408, tmp580
 # C:/msys64/ucrt64/lib/gcc/x86_64-w64-mingw32/13.1.0/include/avxintrin.h:174:   return (__m256) __builtin_ia32_andps256 ((__v8sf)__A, (__v8sf)__B);
	vandps	%ymm9, %ymm14, %ymm9	 # tmp578, tmp571, tmp579
 # C:/msys64/ucrt64/lib/gcc/x86_64-w64-mingw32/13.1.0/include/avxintrin.h:149:   return (__m256) ((__v8sf)__A + (__v8sf)__B);
	vaddps	%ymm9, %ymm11, %ymm9	 # tmp579, _377, _420
 # C:/msys64/ucrt64/lib/gcc/x86_64-w64-mingw32/13.1.0/include/avx2intrin.h:1065:   return (__m256) __builtin_ia32_permvarsf256 ((__v8sf)__X, (__v8si)__Y);
	vmovdqu	.LC5(%rip), %ymm11	 #, tmp1037
 # C:/msys64/ucrt64/lib/gcc/x86_64-w64-mingw32/13.1.0/include/avxintrin.h:174:   return (__m256) __builtin_ia32_andps256 ((__v8sf)__A, (__v8sf)__B);
	vandps	%ymm15, %ymm14, %ymm10	 # tmp580, tmp571, tmp581
 # C:/msys64/ucrt64/lib/gcc/x86_64-w64-mingw32/13.1.0/include/avxintrin.h:368:   return (__m256) ((__v8sf)__A - (__v8sf)__B);
	vmovups	32(%rsp), %ymm14	 # %sfp, _50
 # C:/msys64/ucrt64/lib/gcc/x86_64-w64-mingw32/13.1.0/include/avxintrin.h:149:   return (__m256) ((__v8sf)__A + (__v8sf)__B);
	vaddps	%ymm10, %ymm5, %ymm10	 # tmp581, _380, _423
 # C:/msys64/ucrt64/lib/gcc/x86_64-w64-mingw32/13.1.0/include/avxintrin.h:475:   return (__m256i)__builtin_ia32_cvtps2dq256 ((__v8sf) __A);
	vcvtps2dq	%ymm7, %ymm5	 # tmp575, tmp586
 # C:/msys64/ucrt64/lib/gcc/x86_64-w64-mingw32/13.1.0/include/avxintrin.h:368:   return (__m256) ((__v8sf)__A - (__v8sf)__B);
	vmovups	64(%rsp), %ymm7	 # %sfp, _52
 # C:/msys64/ucrt64/lib/gcc/x86_64-w64-mingw32/13.1.0/include/avxintrin.h:475:   return (__m256i)__builtin_ia32_cvtps2dq256 ((__v8sf) __A);
	vmovdqu	%ymm5, 160(%rsp)	 # tmp586, %sfp
 # C:/msys64/ucrt64/lib/gcc/x86_64-w64-mingw32/13.1.0/include/avx2intrin.h:1065:   return (__m256) __builtin_ia32_permvarsf256 ((__v8sf)__X, (__v8si)__Y);
	vpermps	%ymm1, %ymm11, %ymm1	 # tmp559, tmp1037, tmp588
	vpermps	%ymm0, %ymm11, %ymm0	 # tmp561, tmp1036, tmp590
	vpermps	%ymm2, %ymm11, %ymm2	 # tmp563, tmp1035, tmp592
	vpermps	%ymm3, %ymm11, %ymm3	 # tmp565, tmp1034, tmp594
 # C:/msys64/ucrt64/lib/gcc/x86_64-w64-mingw32/13.1.0/include/avxintrin.h:368:   return (__m256) ((__v8sf)__A - (__v8sf)__B);
	vsubps	%ymm1, %ymm14, %ymm11	 # tmp588, _50, _450
	vsubps	%ymm0, %ymm7, %ymm15	 # tmp590, _52, _451
 # C:/msys64/ucrt64/lib/gcc/x86_64-w64-mingw32/13.1.0/include/avxintrin.h:320:   return (__m256) ((__v8sf)__A * (__v8sf)__B);
	vmulps	%ymm11, %ymm11, %ymm7	 # _450, _450, tmp596
 # C:/msys64/ucrt64/lib/gcc/x86_64-w64-mingw32/13.1.0/include/avxintrin.h:149:   return (__m256) ((__v8sf)__A + (__v8sf)__B);
	vfmadd231ps	%ymm15, %ymm15, %ymm7	 # _451, _451, _454
 # C:/msys64/ucrt64/lib/gcc/x86_64-w64-mingw32/13.1.0/include/avxintrin.h:406:   return (__m256) __builtin_ia32_cmpps256 ((__v8sf)__X, (__v8sf)__Y,
	vcmpps	$1, %ymm12, %ymm7, %ymm14	 #, _35, _454, tmp600
	vcmpps	$1, 96(%rsp), %ymm7, %ymm5	 #, %sfp, _454, tmp597
 # C:/msys64/ucrt64/lib/gcc/x86_64-w64-mingw32/13.1.0/include/avxintrin.h:368:   return (__m256) ((__v8sf)__A - (__v8sf)__B);
	vsubps	%ymm7, %ymm12, %ymm7	 # _454, _35, _459
 # C:/msys64/ucrt64/lib/gcc/x86_64-w64-mingw32/13.1.0/include/avxintrin.h:320:   return (__m256) ((__v8sf)__A * (__v8sf)__B);
	vmulps	%ymm7, %ymm7, %ymm7	 # _459, _459, _460
 # C:/msys64/ucrt64/lib/gcc/x86_64-w64-mingw32/13.1.0/include/avxintrin.h:186:   return (__m256) __builtin_ia32_andnps256 ((__v8sf)__A, (__v8sf)__B);
	vandnps	%ymm5, %ymm14, %ymm5	 # tmp597, tmp600, tmp603
 # C:/msys64/ucrt64/lib/gcc/x86_64-w64-mingw32/13.1.0/include/avxintrin.h:174:   return (__m256) __builtin_ia32_andps256 ((__v8sf)__A, (__v8sf)__B);
	vandps	.LC3(%rip), %ymm5, %ymm5	 #, tmp603, tmp604
 # C:/msys64/ucrt64/lib/gcc/x86_64-w64-mingw32/13.1.0/include/fmaintrin.h:65:   return (__m256)__builtin_ia32_vfmaddps256 ((__v8sf)__A, (__v8sf)__B,
	vfmadd231ps	%ymm2, %ymm5, %ymm6	 # tmp592, tmp604, tmp611
	vfmadd231ps	%ymm3, %ymm5, %ymm8	 # tmp594, tmp604, tmp612
	vfmadd231ps	%ymm1, %ymm5, %ymm13	 # tmp588, tmp604, tmp613
	vfmadd231ps	%ymm0, %ymm5, %ymm4	 # tmp590, tmp604, tmp614
 # C:/msys64/ucrt64/lib/gcc/x86_64-w64-mingw32/13.1.0/include/avxintrin.h:475:   return (__m256i)__builtin_ia32_cvtps2dq256 ((__v8sf) __A);
	vcvtps2dq	%ymm5, %ymm5	 # tmp604, tmp615
	vpaddd	160(%rsp), %ymm5, %ymm5	 # %sfp, tmp615, tmp617
	vpaddd	320(%rsp), %ymm5, %ymm5	 # %sfp, tmp617, tmp618
 # C:/msys64/ucrt64/lib/gcc/x86_64-w64-mingw32/13.1.0/include/avxintrin.h:320:   return (__m256) ((__v8sf)__A * (__v8sf)__B);
	vmulps	%ymm7, %ymm11, %ymm11	 # _460, _450, tmp607
	vmulps	%ymm7, %ymm15, %ymm15	 # _460, _451, tmp609
 # C:/msys64/ucrt64/lib/gcc/x86_64-w64-mingw32/13.1.0/include/avxintrin.h:368:   return (__m256) ((__v8sf)__A - (__v8sf)__B);
	vmovups	64(%rsp), %ymm7	 # %sfp, _52
 # C:/msys64/ucrt64/lib/gcc/x86_64-w64-mingw32/13.1.0/include/avxintrin.h:174:   return (__m256) __builtin_ia32_andps256 ((__v8sf)__A, (__v8sf)__B);
	vandps	%ymm11, %ymm14, %ymm11	 # tmp607, tmp600, tmp608
 # C:/msys64/ucrt64/lib/gcc/x86_64-w64-mingw32/13.1.0/include/avxintrin.h:149:   return (__m256) ((__v8sf)__A + (__v8sf)__B);
	vaddps	%ymm11, %ymm9, %ymm11	 # tmp608, _420, _463
 # C:/msys64/ucrt64/lib/gcc/x86_64-w64-mingw32/13.1.0/include/avxintrin.h:174:   return (__m256) __builtin_ia32_andps256 ((__v8sf)__A, (__v8sf)__B);
	vandps	%ymm15, %ymm14, %ymm9	 # tmp609, tmp600, tmp610
 # C:/msys64/ucrt64/lib/gcc/x86_64-w64-mingw32/13.1.0/include/avx2intrin.h:1065:   return (__m256) __builtin_ia32_permvarsf256 ((__v8sf)__X, (__v8si)__Y);
	vmovdqu	.LC5(%rip), %ymm14	 #, tmp1030
	vpaddd	128(%rsp), %ymm5, %ymm15	 # %sfp, tmp618, _313
 # C:/msys64/ucrt64/lib/gcc/x86_64-w64-mingw32/13.1.0/include/avxintrin.h:149:   return (__m256) ((__v8sf)__A + (__v8sf)__B);
	vaddps	%ymm9, %ymm10, %ymm9	 # tmp610, _423, _466
 # C:/msys64/ucrt64/lib/gcc/x86_64-w64-mingw32/13.1.0/include/avx2intrin.h:1065:   return (__m256) __builtin_ia32_permvarsf256 ((__v8sf)__X, (__v8si)__Y);
	vpermps	%ymm1, %ymm14, %ymm1	 # tmp588, tmp1030, tmp619
	vpermps	%ymm0, %ymm14, %ymm0	 # tmp590, tmp1029, tmp621
	vpermps	%ymm2, %ymm14, %ymm2	 # tmp592, tmp1028, tmp623
	vmovdqu	%ymm15, 128(%rsp)	 # _313, %sfp
	vpermps	%ymm3, %ymm14, %ymm3	 # tmp594, tmp1027, tmp625
 # C:/msys64/ucrt64/lib/gcc/x86_64-w64-mingw32/13.1.0/include/avxintrin.h:368:   return (__m256) ((__v8sf)__A - (__v8sf)__B);
	vmovups	32(%rsp), %ymm14	 # %sfp, _50
	vsubps	%ymm0, %ymm7, %ymm15	 # tmp621, _52, _494
	vsubps	%ymm1, %ymm14, %ymm5	 # tmp619, _50, _493
 # C:/msys64/ucrt64/lib/gcc/x86_64-w64-mingw32/13.1.0/include/avxintrin.h:320:   return (__m256) ((__v8sf)__A * (__v8sf)__B);
	vmulps	%ymm5, %ymm5, %ymm10	 # _493, _493, tmp627
 # C:/msys64/ucrt64/lib/gcc/x86_64-w64-mingw32/13.1.0/include/avxintrin.h:149:   return (__m256) ((__v8sf)__A + (__v8sf)__B);
	vfmadd231ps	%ymm15, %ymm15, %ymm10	 # _494, _494, _497
 # C:/msys64/ucrt64/lib/gcc/x86_64-w64-mingw32/13.1.0/include/avxintrin.h:406:   return (__m256) __builtin_ia32_cmpps256 ((__v8sf)__X, (__v8sf)__Y,
	vcmpps	$1, %ymm12, %ymm10, %ymm14	 #, _35, _497, tmp631
	vcmpps	$1, 96(%rsp), %ymm10, %ymm7	 #, %sfp, _497, tmp628
 # C:/msys64/ucrt64/lib/gcc/x86_64-w64-mingw32/13.1.0/include/avxintrin.h:368:   return (__m256) ((__v8sf)__A - (__v8sf)__B);
	vsubps	%ymm10, %ymm12, %ymm10	 # _497, _35, _502
 # C:/msys64/ucrt64/lib/gcc/x86_64-w64-mingw32/13.1.0/include/avxintrin.h:320:   return (__m256) ((__v8sf)__A * (__v8sf)__B);
	vmulps	%ymm10, %ymm10, %ymm10	 # _502, _502, _503
 # C:/msys64/ucrt64/lib/gcc/x86_64-w64-mingw32/13.1.0/include/avxintrin.h:186:   return (__m256) __builtin_ia32_andnps256 ((__v8sf)__A, (__v8sf)__B);
	vandnps	%ymm7, %ymm14, %ymm7	 # tmp628, tmp631, tmp634
 # C:/msys64/ucrt64/lib/gcc/x86_64-w64-mingw32/13.1.0/include/avxintrin.h:174:   return (__m256) __builtin_ia32_andps256 ((__v8sf)__A, (__v8sf)__B);
	vandps	.LC3(%rip), %ymm7, %ymm7	 #, tmp634, tmp635
 # C:/msys64/ucrt64/lib/gcc/x86_64-w64-mingw32/13.1.0/include/fmaintrin.h:65:   return (__m256)__builtin_ia32_vfmaddps256 ((__v8sf)__A, (__v8sf)__B,
	vfmadd231ps	%ymm1, %ymm7, %ymm13	 # tmp619, tmp635, tmp644
	vfmadd231ps	%ymm0, %ymm7, %ymm4	 # tmp621, tmp635, tmp645
	vfmadd231ps	%ymm3, %ymm7, %ymm8	 # tmp625, tmp635, tmp643
	vfmadd231ps	%ymm2, %ymm7, %ymm6	 # tmp623, tmp635, tmp642
 # C:/msys64/ucrt64/lib/gcc/x86_64-w64-mingw32/13.1.0/include/avxintrin.h:320:   return (__m256) ((__v8sf)__A * (__v8sf)__B);
	vmulps	%ymm10, %ymm5, %ymm5	 # _503, _493, tmp638
	vmulps	%ymm10, %ymm15, %ymm15	 # _503, _494, tmp640
 # C:/msys64/ucrt64/lib/gcc/x86_64-w64-mingw32/13.1.0/include/avxintrin.h:174:   return (__m256) __builtin_ia32_andps256 ((__v8sf)__A, (__v8sf)__B);
	vandps	%ymm5, %ymm14, %ymm5	 # tmp638, tmp631, tmp639
 # C:/msys64/ucrt64/lib/gcc/x86_64-w64-mingw32/13.1.0/include/avxintrin.h:149:   return (__m256) ((__v8sf)__A + (__v8sf)__B);
	vaddps	%ymm5, %ymm11, %ymm5	 # tmp639, _463, _506
 # C:/msys64/ucrt64/lib/gcc/x86_64-w64-mingw32/13.1.0/include/avxintrin.h:475:   return (__m256i)__builtin_ia32_cvtps2dq256 ((__v8sf) __A);
	vcvtps2dq	%ymm7, %ymm11	 # tmp635, tmp646
 # C:/msys64/ucrt64/lib/gcc/x86_64-w64-mingw32/13.1.0/include/avxintrin.h:174:   return (__m256) __builtin_ia32_andps256 ((__v8sf)__A, (__v8sf)__B);
	vandps	%ymm15, %ymm14, %ymm14	 # tmp640, tmp631, tmp641
 # C:/msys64/ucrt64/lib/gcc/x86_64-w64-mingw32/13.1.0/include/avxintrin.h:475:   return (__m256i)__builtin_ia32_cvtps2dq256 ((__v8sf) __A);
	vmovdqu	%ymm11, 160(%rsp)	 # tmp646, %sfp
 # C:/msys64/ucrt64/lib/gcc/x86_64-w64-mingw32/13.1.0/include/avx2intrin.h:1065:   return (__m256) __builtin_ia32_permvarsf256 ((__v8sf)__X, (__v8si)__Y);
	vmovdqu	.LC5(%rip), %ymm11	 #, tmp1025
 # C:/msys64/ucrt64/lib/gcc/x86_64-w64-mingw32/13.1.0/include/avxintrin.h:149:   return (__m256) ((__v8sf)__A + (__v8sf)__B);
	vaddps	%ymm14, %ymm9, %ymm9	 # tmp641, _466, _509
 # C:/msys64/ucrt64/lib/gcc/x86_64-w64-mingw32/13.1.0/include/avxintrin.h:368:   return (__m256) ((__v8sf)__A - (__v8sf)__B);
	vmovups	32(%rsp), %ymm14	 # %sfp, _50
 # C:/msys64/ucrt64/lib/gcc/x86_64-w64-mingw32/13.1.0/include/avx2intrin.h:1065:   return (__m256) __builtin_ia32_permvarsf256 ((__v8sf)__X, (__v8si)__Y);
	vpermps	%ymm1, %ymm11, %ymm11	 # tmp619, tmp1025, tmp648
	vmovdqu	.LC5(%rip), %ymm1	 #, tmp1024
	vpermps	%ymm0, %ymm1, %ymm10	 # tmp621, tmp1024, tmp650
	vmovdqu	.LC5(%rip), %ymm0	 #, tmp1022
	vpermps	%ymm2, %ymm1, %ymm1	 # tmp623, tmp1023, tmp652
 # C:/msys64/ucrt64/lib/gcc/x86_64-w64-mingw32/13.1.0/include/avxintrin.h:368:   return (__m256) ((__v8sf)__A - (__v8sf)__B);
	vmovups	64(%rsp), %ymm7	 # %sfp, _52
 # C:/msys64/ucrt64/lib/gcc/x86_64-w64-mingw32/13.1.0/include/avx2intrin.h:1065:   return (__m256) __builtin_ia32_permvarsf256 ((__v8sf)__X, (__v8si)__Y);
	vpermps	%ymm3, %ymm0, %ymm15	 # tmp625, tmp1022, tmp654
 # C:/msys64/ucrt64/lib/gcc/x86_64-w64-mingw32/13.1.0/include/avxintrin.h:368:   return (__m256) ((__v8sf)__A - (__v8sf)__B);
	vsubps	%ymm11, %ymm14, %ymm3	 # tmp648, _50, _536
	vsubps	%ymm10, %ymm7, %ymm14	 # tmp650, _52, _537
 # C:/msys64/ucrt64/lib/gcc/x86_64-w64-mingw32/13.1.0/include/avxintrin.h:320:   return (__m256) ((__v8sf)__A * (__v8sf)__B);
	vmulps	%ymm3, %ymm3, %ymm2	 # _536, _536, tmp656
 # C:/msys64/ucrt64/lib/gcc/x86_64-w64-mingw32/13.1.0/include/avxintrin.h:149:   return (__m256) ((__v8sf)__A + (__v8sf)__B);
	vfmadd231ps	%ymm14, %ymm14, %ymm2	 # _537, _537, _540
 # C:/msys64/ucrt64/lib/gcc/x86_64-w64-mingw32/13.1.0/include/avxintrin.h:406:   return (__m256) __builtin_ia32_cmpps256 ((__v8sf)__X, (__v8sf)__Y,
	vcmpps	$1, %ymm12, %ymm2, %ymm7	 #, _35, _540, tmp660
	vcmpps	$1, 96(%rsp), %ymm2, %ymm0	 #, %sfp, _540, tmp657
 # C:/msys64/ucrt64/lib/gcc/x86_64-w64-mingw32/13.1.0/include/avxintrin.h:368:   return (__m256) ((__v8sf)__A - (__v8sf)__B);
	vsubps	%ymm2, %ymm12, %ymm2	 # _540, _35, _545
 # C:/msys64/ucrt64/lib/gcc/x86_64-w64-mingw32/13.1.0/include/avxintrin.h:320:   return (__m256) ((__v8sf)__A * (__v8sf)__B);
	vmulps	%ymm2, %ymm2, %ymm2	 # _545, _545, _546
 # C:/msys64/ucrt64/lib/gcc/x86_64-w64-mingw32/13.1.0/include/avxintrin.h:186:   return (__m256) __builtin_ia32_andnps256 ((__v8sf)__A, (__v8sf)__B);
	vandnps	%ymm0, %ymm7, %ymm0	 # tmp657, tmp660, tmp663
 # C:/msys64/ucrt64/lib/gcc/x86_64-w64-mingw32/13.1.0/include/avxintrin.h:174:   return (__m256) __builtin_ia32_andps256 ((__v8sf)__A, (__v8sf)__B);
	vandps	.LC3(%rip), %ymm0, %ymm0	 #, tmp663, tmp664
 # C:/msys64/ucrt64/lib/gcc/x86_64-w64-mingw32/13.1.0/include/fmaintrin.h:65:   return (__m256)__builtin_ia32_vfmaddps256 ((__v8sf)__A, (__v8sf)__B,
	vfmadd132ps	%ymm0, %ymm6, %ymm1	 # tmp664, tmp642, avg_vx_vec
	vfmadd132ps	%ymm0, %ymm8, %ymm15	 # tmp664, tmp643, avg_vy_vec
	vfmadd231ps	%ymm11, %ymm0, %ymm13	 # tmp648, tmp664, avg_x_vec
	vfmadd231ps	%ymm10, %ymm0, %ymm4	 # tmp650, tmp664, avg_y_vec
 # C:/msys64/ucrt64/lib/gcc/x86_64-w64-mingw32/13.1.0/include/avxintrin.h:475:   return (__m256i)__builtin_ia32_cvtps2dq256 ((__v8sf) __A);
	vcvtps2dq	%ymm0, %ymm0	 # tmp664, tmp675
 # C:/msys64/ucrt64/lib/gcc/x86_64-w64-mingw32/13.1.0/include/avx2intrin.h:121:   return (__m256i) ((__v8su)__A + (__v8su)__B);
	vpaddd	160(%rsp), %ymm0, %ymm0	 # %sfp, tmp675, tmp677
 # C:/msys64/ucrt64/lib/gcc/x86_64-w64-mingw32/13.1.0/include/avx2intrin.h:121:   return (__m256i) ((__v8su)__A + (__v8su)__B);
	vpaddd	128(%rsp), %ymm0, %ymm6	 # %sfp, tmp677, tmp941
 # C:/msys64/ucrt64/lib/gcc/x86_64-w64-mingw32/13.1.0/include/avxintrin.h:320:   return (__m256) ((__v8sf)__A * (__v8sf)__B);
	vmulps	%ymm2, %ymm3, %ymm3	 # _546, _536, tmp667
 # C:/msys64/ucrt64/lib/gcc/x86_64-w64-mingw32/13.1.0/include/avx2intrin.h:121:   return (__m256i) ((__v8su)__A + (__v8su)__B);
	vmovdqu	%ymm6, 320(%rsp)	 # tmp941, %sfp
 # C:/msys64/ucrt64/lib/gcc/x86_64-w64-mingw32/13.1.0/include/avxintrin.h:320:   return (__m256) ((__v8sf)__A * (__v8sf)__B);
	vmulps	%ymm2, %ymm14, %ymm14	 # _546, _537, tmp669
 # C:/msys64/ucrt64/lib/gcc/x86_64-w64-mingw32/13.1.0/include/avxintrin.h:174:   return (__m256) __builtin_ia32_andps256 ((__v8sf)__A, (__v8sf)__B);
	vandps	%ymm3, %ymm7, %ymm3	 # tmp667, tmp660, tmp668
	vandps	%ymm14, %ymm7, %ymm7	 # tmp669, tmp660, tmp670
 # C:/msys64/ucrt64/lib/gcc/x86_64-w64-mingw32/13.1.0/include/avxintrin.h:149:   return (__m256) ((__v8sf)__A + (__v8sf)__B);
	vaddps	%ymm3, %ymm5, %ymm3	 # tmp668, _506, sep_x_vec
	vaddps	%ymm7, %ymm9, %ymm2	 # tmp670, _509, sep_y_vec
	vmovups	%ymm3, 352(%rsp)	 # sep_x_vec, %sfp
	vmovups	%ymm2, 384(%rsp)	 # sep_y_vec, %sfp
 # .\src\main.cpp:689:             for (Boid nearby_boid = row_begin; nearby_boid < row_end; nearby_boid += 8) {
	cmpl	%r14d, %esi	 # ivtmp.1656, row_end
	jg	.L227	 #,
.L226:
 # .\src\main.cpp:674:         for (int cy = -1; cy <= 1; cy++) {
	movl	488(%rsp), %eax	 # %sfp, _862
	addl	$1, %ebx	 #, ivtmp.1681
	cmpl	%eax, %ebx	 # _862, ivtmp.1681
	jne	.L222	 #,
 # C:/msys64/ucrt64/lib/gcc/x86_64-w64-mingw32/13.1.0/include/avx2intrin.h:275:   return (__m256i) ((__v8si)__A > (__v8si)__B);
	vmovaps	%ymm13, %ymm0	 # avg_x_vec, avg_x_vec
	movq	%rdx, %rcx	 # vxs, vxs
	vpxor	%xmm2, %xmm2, %xmm2	 # tmp680
	movq	%r15, %r14	 # vys, vys
	vmovdqu	320(%rsp), %ymm6	 # %sfp, isc
 # C:/msys64/ucrt64/lib/gcc/x86_64-w64-mingw32/13.1.0/include/avxintrin.h:368:   return (__m256) ((__v8sf)__A - (__v8sf)__B);
	vmovups	64(%rsp), %ymm12	 # %sfp, _52
 # C:/msys64/ucrt64/lib/gcc/x86_64-w64-mingw32/13.1.0/include/avx2intrin.h:275:   return (__m256i) ((__v8si)__A > (__v8si)__B);
	movq	480(%rsp), %rdi	 # %sfp, ivtmp.1685
	vmovups	448(%rsp), %ymm5	 # %sfp, _39
 # C:/msys64/ucrt64/lib/gcc/x86_64-w64-mingw32/13.1.0/include/avxintrin.h:463:   return (__m256)__builtin_ia32_cvtdq2ps256 ((__v8si) __A);
	vcvtdq2ps	%ymm6, %ymm7	 # isc, tmp686
 # C:/msys64/ucrt64/lib/gcc/x86_64-w64-mingw32/13.1.0/include/avxintrin.h:243:   return (__m256) ((__v8sf)__A / (__v8sf)__B);
	vdivps	%ymm7, %ymm1, %ymm1	 # tmp686, avg_vx_vec, tmp688
 # C:/msys64/ucrt64/lib/gcc/x86_64-w64-mingw32/13.1.0/include/avx2intrin.h:275:   return (__m256i) ((__v8si)__A > (__v8si)__B);
	vpcmpgtd	%ymm2, %ymm6, %ymm2	 # tmp680, tmp944, tmp681
	vmovups	384(%rsp), %ymm14	 # %sfp, sep_y_vec
	movq	776(%rsp), %rdx	 # rules, rules
 # .\src\main.cpp:789:         auto cmpx_2 = _mm256_cmp_ps(current_xs_vec, _mm256_set1_ps(world_width - rules->edge_width), _CMP_GT_OS);
	movl	500(%rsp), %r9d	 # %sfp, tmp711
 # C:/msys64/ucrt64/lib/gcc/x86_64-w64-mingw32/13.1.0/include/avx2intrin.h:275:   return (__m256i) ((__v8si)__A > (__v8si)__B);
	vmovups	352(%rsp), %ymm13	 # %sfp, sep_x_vec
 # C:/msys64/ucrt64/lib/gcc/x86_64-w64-mingw32/13.1.0/include/fmaintrin.h:65:   return (__m256)__builtin_ia32_vfmaddps256 ((__v8sf)__A, (__v8sf)__B,
	vfmadd213ps	(%rcx,%rdi,4), %ymm5, %ymm13	 # MEM[(__m256_u * {ref-all})vxs_32 + ivtmp.1685_861 * 4], _39, sep_x_vec
	vmovaps	%ymm14, %ymm8	 # sep_y_vec, sep_y_vec
	vfmadd213ps	(%r15,%rdi,4), %ymm5, %ymm8	 # MEM[(__m256_u * {ref-all})vys_33 + ivtmp.1685_861 * 4], _39, sep_y_vec
 # C:/msys64/ucrt64/lib/gcc/x86_64-w64-mingw32/13.1.0/include/avxintrin.h:1330: 				 __A, __A, __A, __A };
	vbroadcastss	16(%rdx), %ymm6	 # rules_15(D)->alignment_factor, tmp691
 # .\src\main.cpp:784:         const auto ew = _mm256_set1_ps(rules->edge_width);
	movl	24(%rdx), %eax	 # rules_15(D)->edge_width, _164
 # .\src\main.cpp:789:         auto cmpx_2 = _mm256_cmp_ps(current_xs_vec, _mm256_set1_ps(world_width - rules->edge_width), _CMP_GT_OS);
	subl	%eax, %r9d	 # _164, tmp711
 # C:/msys64/ucrt64/lib/gcc/x86_64-w64-mingw32/13.1.0/include/avxintrin.h:243:   return (__m256) ((__v8sf)__A / (__v8sf)__B);
	vdivps	%ymm7, %ymm15, %ymm3	 # tmp686, avg_vy_vec, tmp693
 # C:/msys64/ucrt64/lib/gcc/x86_64-w64-mingw32/13.1.0/include/avxintrin.h:368:   return (__m256) ((__v8sf)__A - (__v8sf)__B);
	vsubps	%ymm13, %ymm1, %ymm1	 # tmp682, tmp688, tmp689
 # C:/msys64/ucrt64/lib/gcc/x86_64-w64-mingw32/13.1.0/include/avxintrin.h:174:   return (__m256) __builtin_ia32_andps256 ((__v8sf)__A, (__v8sf)__B);
	vandps	%ymm2, %ymm1, %ymm1	 # tmp681, tmp689, tmp690
 # C:/msys64/ucrt64/lib/gcc/x86_64-w64-mingw32/13.1.0/include/fmaintrin.h:65:   return (__m256)__builtin_ia32_vfmaddps256 ((__v8sf)__A, (__v8sf)__B,
	vfmadd132ps	%ymm6, %ymm13, %ymm1	 # tmp691, tmp682, tmp692
 # C:/msys64/ucrt64/lib/gcc/x86_64-w64-mingw32/13.1.0/include/avxintrin.h:368:   return (__m256) ((__v8sf)__A - (__v8sf)__B);
	vmovups	32(%rsp), %ymm13	 # %sfp, _50
 # C:/msys64/ucrt64/lib/gcc/x86_64-w64-mingw32/13.1.0/include/avxintrin.h:243:   return (__m256) ((__v8sf)__A / (__v8sf)__B);
	vdivps	%ymm7, %ymm0, %ymm0	 # tmp686, avg_x_vec, tmp697
 # C:/msys64/ucrt64/lib/gcc/x86_64-w64-mingw32/13.1.0/include/avxintrin.h:368:   return (__m256) ((__v8sf)__A - (__v8sf)__B);
	vsubps	%ymm8, %ymm3, %ymm3	 # tmp684, tmp693, tmp694
 # C:/msys64/ucrt64/lib/gcc/x86_64-w64-mingw32/13.1.0/include/avxintrin.h:174:   return (__m256) __builtin_ia32_andps256 ((__v8sf)__A, (__v8sf)__B);
	vandps	%ymm2, %ymm3, %ymm3	 # tmp681, tmp694, tmp695
 # C:/msys64/ucrt64/lib/gcc/x86_64-w64-mingw32/13.1.0/include/fmaintrin.h:65:   return (__m256)__builtin_ia32_vfmaddps256 ((__v8sf)__A, (__v8sf)__B,
	vfmadd132ps	%ymm3, %ymm8, %ymm6	 # tmp695, tmp684, tmp696
 # C:/msys64/ucrt64/lib/gcc/x86_64-w64-mingw32/13.1.0/include/avxintrin.h:1330: 				 __A, __A, __A, __A };
	vbroadcastss	20(%rdx), %ymm8	 # rules_15(D)->cohesion_factor, tmp700
 # C:/msys64/ucrt64/lib/gcc/x86_64-w64-mingw32/13.1.0/include/avxintrin.h:368:   return (__m256) ((__v8sf)__A - (__v8sf)__B);
	vsubps	%ymm13, %ymm0, %ymm3	 # _50, tmp697, tmp698
 # C:/msys64/ucrt64/lib/gcc/x86_64-w64-mingw32/13.1.0/include/avxintrin.h:243:   return (__m256) ((__v8sf)__A / (__v8sf)__B);
	vdivps	%ymm7, %ymm4, %ymm0	 # tmp686, avg_y_vec, tmp702
 # C:/msys64/ucrt64/lib/gcc/x86_64-w64-mingw32/13.1.0/include/fmaintrin.h:65:   return (__m256)__builtin_ia32_vfmaddps256 ((__v8sf)__A, (__v8sf)__B,
	vmovaps	%ymm8, %ymm4	 # tmp700, tmp700
 # C:/msys64/ucrt64/lib/gcc/x86_64-w64-mingw32/13.1.0/include/avxintrin.h:174:   return (__m256) __builtin_ia32_andps256 ((__v8sf)__A, (__v8sf)__B);
	vandps	%ymm2, %ymm3, %ymm3	 # tmp681, tmp698, tmp699
 # C:/msys64/ucrt64/lib/gcc/x86_64-w64-mingw32/13.1.0/include/fmaintrin.h:65:   return (__m256)__builtin_ia32_vfmaddps256 ((__v8sf)__A, (__v8sf)__B,
	vfmadd132ps	%ymm8, %ymm1, %ymm3	 # tmp700, tmp692, tmp701
 # .\src\main.cpp:784:         const auto ew = _mm256_set1_ps(rules->edge_width);
	vxorps	%xmm8, %xmm8, %xmm8	 # tmp950
 # C:/msys64/ucrt64/lib/gcc/x86_64-w64-mingw32/13.1.0/include/avxintrin.h:368:   return (__m256) ((__v8sf)__A - (__v8sf)__B);
	vsubps	%ymm12, %ymm0, %ymm0	 # _52, tmp702, tmp703
 # C:/msys64/ucrt64/lib/gcc/x86_64-w64-mingw32/13.1.0/include/avxintrin.h:174:   return (__m256) __builtin_ia32_andps256 ((__v8sf)__A, (__v8sf)__B);
	vandps	%ymm2, %ymm0, %ymm0	 # tmp681, tmp703, tmp704
 # .\src\main.cpp:784:         const auto ew = _mm256_set1_ps(rules->edge_width);
	vcvtsi2ssl	%eax, %xmm8, %xmm2	 # _164, tmp950, tmp794
 # C:/msys64/ucrt64/lib/gcc/x86_64-w64-mingw32/13.1.0/include/fmaintrin.h:65:   return (__m256)__builtin_ia32_vfmaddps256 ((__v8sf)__A, (__v8sf)__B,
	vfmadd132ps	%ymm0, %ymm6, %ymm4	 # tmp704, tmp696, tmp700
 # .\src\main.cpp:789:         auto cmpx_2 = _mm256_cmp_ps(current_xs_vec, _mm256_set1_ps(world_width - rules->edge_width), _CMP_GT_OS);
	vcvtsi2ssl	%r9d, %xmm8, %xmm0	 # tmp711, tmp953, tmp795
 # C:/msys64/ucrt64/lib/gcc/x86_64-w64-mingw32/13.1.0/include/avxintrin.h:1330: 				 __A, __A, __A, __A };
	vbroadcastss	28(%rdx), %ymm6	 # rules_15(D)->edge_factor, tmp706
 # .\src\main.cpp:791:         auto cmpy_2 = _mm256_cmp_ps(current_ys_vec, _mm256_set1_ps(world_height - rules->edge_width), _CMP_GT_OS);
	movl	492(%rsp), %r9d	 # %sfp, tmp719
	subl	%eax, %r9d	 # _164, tmp719
 # C:/msys64/ucrt64/lib/gcc/x86_64-w64-mingw32/13.1.0/include/avxintrin.h:1330: 				 __A, __A, __A, __A };
	vbroadcastss	%xmm2, %ymm2	 # _165, tmp707
	vbroadcastss	%xmm0, %ymm0	 # _169, tmp714
 # C:/msys64/ucrt64/lib/gcc/x86_64-w64-mingw32/13.1.0/include/avxintrin.h:406:   return (__m256) __builtin_ia32_cmpps256 ((__v8sf)__X, (__v8sf)__Y,
	vcmpps	$1, %ymm2, %ymm13, %ymm7	 #, tmp707, _50, tmp708
	vcmpps	$14, %ymm0, %ymm13, %ymm1	 #, tmp714, _50, tmp712
 # .\src\main.cpp:791:         auto cmpy_2 = _mm256_cmp_ps(current_ys_vec, _mm256_set1_ps(world_height - rules->edge_width), _CMP_GT_OS);
	vcvtsi2ssl	%r9d, %xmm8, %xmm0	 # tmp719, tmp957, tmp796
 # C:/msys64/ucrt64/lib/gcc/x86_64-w64-mingw32/13.1.0/include/avxintrin.h:229:   return (__m256) __builtin_ia32_blendvps256 ((__v8sf)__X,
	vbroadcastss	.LC4(%rip), %ymm8	 #, tmp960
 # C:/msys64/ucrt64/lib/gcc/x86_64-w64-mingw32/13.1.0/include/avxintrin.h:406:   return (__m256) __builtin_ia32_cmpps256 ((__v8sf)__X, (__v8sf)__Y,
	vcmpps	$1, %ymm2, %ymm12, %ymm2	 #, tmp707, _52, tmp716
 # C:/msys64/ucrt64/lib/gcc/x86_64-w64-mingw32/13.1.0/include/avxintrin.h:174:   return (__m256) __builtin_ia32_andps256 ((__v8sf)__A, (__v8sf)__B);
	vandps	%ymm6, %ymm7, %ymm7	 # tmp706, tmp708, tmp725
	vandps	%ymm6, %ymm1, %ymm1	 # tmp706, tmp712, tmp724
 # C:/msys64/ucrt64/lib/gcc/x86_64-w64-mingw32/13.1.0/include/avxintrin.h:368:   return (__m256) ((__v8sf)__A - (__v8sf)__B);
	vsubps	%ymm1, %ymm7, %ymm1	 # tmp724, tmp725, tmp726
 # C:/msys64/ucrt64/lib/gcc/x86_64-w64-mingw32/13.1.0/include/avxintrin.h:1330: 				 __A, __A, __A, __A };
	vbroadcastss	%xmm0, %ymm0	 # _174, tmp722
 # C:/msys64/ucrt64/lib/gcc/x86_64-w64-mingw32/13.1.0/include/avxintrin.h:406:   return (__m256) __builtin_ia32_cmpps256 ((__v8sf)__X, (__v8sf)__Y,
	vcmpps	$14, %ymm0, %ymm12, %ymm0	 #, tmp722, _52, tmp720
 # C:/msys64/ucrt64/lib/gcc/x86_64-w64-mingw32/13.1.0/include/avxintrin.h:149:   return (__m256) ((__v8sf)__A + (__v8sf)__B);
	vaddps	%ymm3, %ymm1, %ymm3	 # tmp701, tmp726, _180
 # C:/msys64/ucrt64/lib/gcc/x86_64-w64-mingw32/13.1.0/include/avxintrin.h:174:   return (__m256) __builtin_ia32_andps256 ((__v8sf)__A, (__v8sf)__B);
	vandps	%ymm6, %ymm2, %ymm1	 # tmp706, tmp716, tmp728
	vandps	%ymm6, %ymm0, %ymm0	 # tmp706, tmp720, tmp727
 # C:/msys64/ucrt64/lib/gcc/x86_64-w64-mingw32/13.1.0/include/avxintrin.h:368:   return (__m256) ((__v8sf)__A - (__v8sf)__B);
	vsubps	%ymm0, %ymm1, %ymm1	 # tmp727, tmp728, tmp729
 # C:/msys64/ucrt64/lib/gcc/x86_64-w64-mingw32/13.1.0/include/avxintrin.h:320:   return (__m256) ((__v8sf)__A * (__v8sf)__B);
	vmulps	%ymm3, %ymm3, %ymm0	 # _180, _180, tmp730
 # C:/msys64/ucrt64/lib/gcc/x86_64-w64-mingw32/13.1.0/include/avxintrin.h:149:   return (__m256) ((__v8sf)__A + (__v8sf)__B);
	vaddps	%ymm4, %ymm1, %ymm1	 # tmp705, tmp729, _184
	vfmadd231ps	%ymm1, %ymm1, %ymm0	 # _184, _184, _187
 # C:/msys64/ucrt64/lib/gcc/x86_64-w64-mingw32/13.1.0/include/avxintrin.h:1041:   return (__m256) __builtin_ia32_rsqrtps256 ((__v8sf)__A);
	vrsqrtps	%ymm0, %ymm0	 # _187, tmp731
 # C:/msys64/ucrt64/lib/gcc/x86_64-w64-mingw32/13.1.0/include/avxintrin.h:320:   return (__m256) ((__v8sf)__A * (__v8sf)__B);
	vmulps	.LC6(%rip), %ymm0, %ymm4	 #, tmp731, _189
 # C:/msys64/ucrt64/lib/gcc/x86_64-w64-mingw32/13.1.0/include/avxintrin.h:406:   return (__m256) __builtin_ia32_cmpps256 ((__v8sf)__X, (__v8sf)__Y,
	vcmpps	$14, .LC8(%rip), %ymm0, %ymm7	 #,, tmp731, tmp735
	vcmpps	$1, .LC10(%rip), %ymm0, %ymm6	 #,, tmp731, tmp739
	vcmpps	$14, .LC12(%rip), %ymm0, %ymm2	 #,, tmp731, tmp743
 # C:/msys64/ucrt64/lib/gcc/x86_64-w64-mingw32/13.1.0/include/avxintrin.h:320:   return (__m256) ((__v8sf)__A * (__v8sf)__B);
	vmulps	.LC14(%rip), %ymm0, %ymm0	 #, tmp731, tmp747
 # C:/msys64/ucrt64/lib/gcc/x86_64-w64-mingw32/13.1.0/include/avxintrin.h:229:   return (__m256) __builtin_ia32_blendvps256 ((__v8sf)__X,
	vblendvps	%ymm7, %ymm0, %ymm8, %ymm0	 # tmp735, tmp747, tmp959, _196
	vblendvps	%ymm6, %ymm4, %ymm0, %ymm0	 # tmp739, _189, _196, _199
	vblendvps	%ymm2, .LC3(%rip), %ymm0, %ymm0	 # tmp743,, _199, _202
 # C:/msys64/ucrt64/lib/gcc/x86_64-w64-mingw32/13.1.0/include/avxintrin.h:320:   return (__m256) ((__v8sf)__A * (__v8sf)__B);
	vmulps	%ymm0, %ymm3, %ymm3	 # _202, _180, tmp763
	vmulps	%ymm0, %ymm1, %ymm1	 # _202, _184, tmp764
 # C:/msys64/ucrt64/lib/gcc/x86_64-w64-mingw32/13.1.0/include/avxintrin.h:911:   *(__m256_u *)__P = __A;
	vmovups	%ymm3, (%rcx,%rdi,4)	 # tmp763, MEM[(__m256_u * {ref-all})vxs_32 + ivtmp.1685_861 * 4]
	vmovups	%ymm1, (%r15,%rdi,4)	 # tmp764, MEM[(__m256_u * {ref-all})vys_33 + ivtmp.1685_861 * 4]
 # .\src\main.cpp:657:     for (Boid current_boid = cell_begin; current_boid < cell_end; current_boid += 8) {
	addq	$8, %rdi	 #, ivtmp.1685
	cmpl	%edi, 504(%rsp)	 # ivtmp.1685, %sfp
	jg	.L229	 #,
	movl	508(%rsp), %r11d	 # %sfp, y
	movq	%rdx, %rsi	 # rules, rules
	vzeroupper
.L221:
 # .\src\main.cpp:1006:     for (int x = 0; x < boid_map->m_xsize; x++) {
	movl	4(%rbp), %ebx	 # boid_map_14(D)->m_xsize, _20
 # .\src\main.cpp:1006:     for (int x = 0; x < boid_map->m_xsize; x++) {
	leal	1(%r12), %eax	 #, ivtmp.1699
	subl	$1, %r12d	 #, x
 # .\src\main.cpp:1046:     for (int y = thread_num * 2 + offset; y < boid_map->m_ysize; y += 2 * NUM_THREADS) {
	movl	0(%rbp), %r10d	 # boid_map_14(D)->m_ysize, prephitmp_81
 # .\src\main.cpp:1006:     for (int x = 0; x < boid_map->m_xsize; x++) {
	cmpl	%r12d, %ebx	 # x, _20
	jle	.L245	 #,
	movl	%eax, %r12d	 # ivtmp.1699, ivtmp.1699
	jmp	.L219	 #
.L243:
	vzeroupper
	jmp	.L221	 #
.L245:
 # .\src\main.cpp:1046:     for (int y = thread_num * 2 + offset; y < boid_map->m_ysize; y += 2 * NUM_THREADS) {
	movl	_ZL11num_threads(%rip), %eax	 # num_threads, num_threads
	movq	%rsi, 776(%rsp)	 # rules, rules
	movl	%r10d, %esi	 # prephitmp_81, prephitmp_81
	movq	%r13, %rdi	 # boid_list, boid_list
	movq	776(%rsp), %r10	 # rules, rules
	movl	%ebx, %r13d	 # _20, _20
	leal	(%r11,%rax,2), %r9d	 #, y
 # .\src\main.cpp:1046:     for (int y = thread_num * 2 + offset; y < boid_map->m_ysize; y += 2 * NUM_THREADS) {
	cmpl	%esi, %r9d	 # prephitmp_81, y
	jl	.L217	 #,
.L244:
 # .\src\main.cpp:1049: }
	vmovups	512(%rsp), %xmm6	 #,
	vmovups	528(%rsp), %xmm7	 #,
	vmovups	544(%rsp), %xmm8	 #,
	vmovups	560(%rsp), %xmm9	 #,
	vmovups	576(%rsp), %xmm10	 #,
	vmovups	592(%rsp), %xmm11	 #,
	vmovups	608(%rsp), %xmm12	 #,
	vmovups	624(%rsp), %xmm13	 #,
	vmovups	640(%rsp), %xmm14	 #,
	vmovups	656(%rsp), %xmm15	 #,
	addq	$680, %rsp	 #,
	popq	%rbx	 #
	popq	%rsi	 #
	popq	%rdi	 #
	popq	%rbp	 #
	popq	%r12	 #
	popq	%r13	 #
	popq	%r14	 #
	popq	%r15	 #
	ret	
	.seh_endproc
	.section	.text$_ZNSt13__future_base21_Async_state_commonV2D0Ev,"x"
	.linkonce discard
	.align 2
	.p2align 4
	.globl	_ZNSt13__future_base21_Async_state_commonV2D0Ev
	.def	_ZNSt13__future_base21_Async_state_commonV2D0Ev;	.scl	2;	.type	32;	.endef
	.seh_proc	_ZNSt13__future_base21_Async_state_commonV2D0Ev
_ZNSt13__future_base21_Async_state_commonV2D0Ev:
.LFB14615:
	pushq	%rbx	 #
	.seh_pushreg	%rbx
	subq	$32, %rsp	 #,
	.seh_stackalloc	32
	.seh_endprologue
 # C:/msys64/ucrt64/include/c++/13.1.0/future:1718:     ~_Async_state_commonV2() = default;
	leaq	16+_ZTVNSt13__future_base21_Async_state_commonV2E(%rip), %rax	 #, tmp101
 # C:/msys64/ucrt64/include/c++/13.1.0/bits/std_thread.h:172:       if (joinable())
	cmpq	$0, 48(%rcx)	 #, MEM[(const struct thread *)this_2(D) + 48B]._M_id._M_thread
 # C:/msys64/ucrt64/include/c++/13.1.0/future:1718:     ~_Async_state_commonV2() = default;
	movq	%rax, (%rcx)	 # tmp101, this_2(D)->D.152781._vptr._State_baseV2
	movq	%rcx, %rbx	 # tmp99, this
 # C:/msys64/ucrt64/include/c++/13.1.0/bits/std_thread.h:172:       if (joinable())
	jne	.L253	 #,
 # C:/msys64/ucrt64/include/c++/13.1.0/future:344:       virtual ~_State_baseV2() = default;
	leaq	16+_ZTVNSt13__future_base13_State_baseV2E(%rip), %rax	 #, tmp102
 # C:/msys64/ucrt64/include/c++/13.1.0/bits/atomic_futex.h:288:   class __atomic_futex_unsigned
	leaq	32(%rcx), %rcx	 #, tmp94
 # C:/msys64/ucrt64/include/c++/13.1.0/future:344:       virtual ~_State_baseV2() = default;
	movq	%rax, -32(%rcx)	 # tmp102, MEM[(struct _State_baseV2 *)this_2(D)]._vptr._State_baseV2
 # C:/msys64/ucrt64/include/c++/13.1.0/bits/atomic_futex.h:288:   class __atomic_futex_unsigned
	call	_ZNSt18condition_variableD1Ev	 #
 # C:/msys64/ucrt64/include/c++/13.1.0/bits/std_mutex.h:77:     ~__mutex_base() noexcept { __gthread_mutex_destroy(&_M_mutex); }
	leaq	24(%rbx), %rcx	 #, tmp95
 # C:/msys64/ucrt64/include/c++/13.1.0/x86_64-w64-mingw32/bits/gthr-default.h:740:     return __gthrw_(pthread_mutex_destroy) (__mutex);
	call	pthread_mutex_destroy	 #
 # C:/msys64/ucrt64/include/c++/13.1.0/bits/unique_ptr.h:403: 	if (__ptr != nullptr)
	movq	8(%rbx), %rcx	 # MEM[(struct _Result_base * &)this_2(D) + 8], _13
 # C:/msys64/ucrt64/include/c++/13.1.0/bits/unique_ptr.h:403: 	if (__ptr != nullptr)
	testq	%rcx, %rcx	 # _13
	je	.L248	 #,
 # C:/msys64/ucrt64/include/c++/13.1.0/future:229: 	void operator()(_Result_base* __fr) const { __fr->_M_destroy(); }
	movq	(%rcx), %rax	 # _13->_vptr._Result_base, _14
	leaq	_ZNSt13__future_base7_ResultIvE10_M_destroyEv(%rip), %r8	 #, tmp97
	movq	(%rax), %rdx	 # *_14, _15
	cmpq	%r8, %rdx	 # tmp97, _15
	jne	.L249	 #,
 # C:/msys64/ucrt64/include/c++/13.1.0/future:672:       void _M_destroy() { delete this; }
	call	*16(%rax)	 # MEM[(int (*) () *)_14 + 16B]
.L248:
 # C:/msys64/ucrt64/include/c++/13.1.0/future:1718:     ~_Async_state_commonV2() = default;
	movl	$64, %edx	 #,
	movq	%rbx, %rcx	 # this,
 # C:/msys64/ucrt64/include/c++/13.1.0/future:1718:     ~_Async_state_commonV2() = default;
	addq	$32, %rsp	 #,
	popq	%rbx	 #
 # C:/msys64/ucrt64/include/c++/13.1.0/future:1718:     ~_Async_state_commonV2() = default;
	jmp	_ZdlPvy	 #
	.p2align 4,,10
	.p2align 3
.L249:
 # C:/msys64/ucrt64/include/c++/13.1.0/future:229: 	void operator()(_Result_base* __fr) const { __fr->_M_destroy(); }
	call	*%rdx	 # _15
	jmp	.L248	 #
.L253:
 # C:/msys64/ucrt64/include/c++/13.1.0/x86_64-w64-mingw32/bits/c++config.h:322:     terminate();
	call	_ZSt9terminatev	 #
	nop	
	.seh_handler	__gxx_personality_seh0, @unwind, @except
	.seh_handlerdata
.LLSDA14615:
	.byte	0xff
	.byte	0xff
	.byte	0x1
	.uleb128 .LLSDACSE14615-.LLSDACSB14615
.LLSDACSB14615:
.LLSDACSE14615:
	.section	.text$_ZNSt13__future_base21_Async_state_commonV2D0Ev,"x"
	.linkonce discard
	.seh_endproc
	.section	.text$_ZNSt23_Sp_counted_ptr_inplaceINSt13__future_base15_Deferred_stateINSt6thread8_InvokerISt5tupleIJPFviPK8BoidListPK7BoidMapEiPS5_PS8_EEEEvEESaIvELN9__gnu_cxx12_Lock_policyE2EE10_M_disposeEv,"x"
	.linkonce discard
	.align 2
	.p2align 4
	.globl	_ZNSt23_Sp_counted_ptr_inplaceINSt13__future_base15_Deferred_stateINSt6thread8_InvokerISt5tupleIJPFviPK8BoidListPK7BoidMapEiPS5_PS8_EEEEvEESaIvELN9__gnu_cxx12_Lock_policyE2EE10_M_disposeEv
	.def	_ZNSt23_Sp_counted_ptr_inplaceINSt13__future_base15_Deferred_stateINSt6thread8_InvokerISt5tupleIJPFviPK8BoidListPK7BoidMapEiPS5_PS8_EEEEvEESaIvELN9__gnu_cxx12_Lock_policyE2EE10_M_disposeEv;	.scl	2;	.type	32;	.endef
	.seh_proc	_ZNSt23_Sp_counted_ptr_inplaceINSt13__future_base15_Deferred_stateINSt6thread8_InvokerISt5tupleIJPFviPK8BoidListPK7BoidMapEiPS5_PS8_EEEEvEESaIvELN9__gnu_cxx12_Lock_policyE2EE10_M_disposeEv
_ZNSt23_Sp_counted_ptr_inplaceINSt13__future_base15_Deferred_stateINSt6thread8_InvokerISt5tupleIJPFviPK8BoidListPK7BoidMapEiPS5_PS8_EEEEvEESaIvELN9__gnu_cxx12_Lock_policyE2EE10_M_disposeEv:
.LFB14965:
	pushq	%rbx	 #
	.seh_pushreg	%rbx
	subq	$32, %rsp	 #,
	.seh_stackalloc	32
	.seh_endprologue
 # C:/msys64/ucrt64/include/c++/13.1.0/future:1679:     class __future_base::_Deferred_state final
	leaq	16+_ZTVNSt13__future_base15_Deferred_stateINSt6thread8_InvokerISt5tupleIJPFviPK8BoidListPK7BoidMapEiPS4_PS7_EEEEvEE(%rip), %rax	 #, tmp108
	movq	%rax, 16(%rcx)	 # tmp108, MEM[(struct _Deferred_state *)this_2(D) + 16B].D.191400._vptr._State_baseV2
 # C:/msys64/ucrt64/include/c++/13.1.0/bits/shared_ptr_base.h:611:       _M_dispose() noexcept
	movq	%rcx, %rbx	 # tmp106, this
 # C:/msys64/ucrt64/include/c++/13.1.0/bits/unique_ptr.h:403: 	if (__ptr != nullptr)
	movq	64(%rcx), %rcx	 # MEM[(struct _Result * &)this_2(D) + 64], _5
 # C:/msys64/ucrt64/include/c++/13.1.0/bits/unique_ptr.h:403: 	if (__ptr != nullptr)
	testq	%rcx, %rcx	 # _5
	je	.L255	 #,
 # C:/msys64/ucrt64/include/c++/13.1.0/future:229: 	void operator()(_Result_base* __fr) const { __fr->_M_destroy(); }
	movq	(%rcx), %rax	 # MEM[(struct _Result_base *)_5]._vptr._Result_base, _6
	leaq	_ZNSt13__future_base7_ResultIvE10_M_destroyEv(%rip), %r8	 #, tmp97
	movq	(%rax), %rdx	 # *_6, _7
	cmpq	%r8, %rdx	 # tmp97, _7
	jne	.L256	 #,
 # C:/msys64/ucrt64/include/c++/13.1.0/future:672:       void _M_destroy() { delete this; }
	call	*16(%rax)	 # MEM[(int (*) () *)_6 + 16B]
.L255:
 # C:/msys64/ucrt64/include/c++/13.1.0/future:344:       virtual ~_State_baseV2() = default;
	leaq	16+_ZTVNSt13__future_base13_State_baseV2E(%rip), %rax	 #, tmp109
 # C:/msys64/ucrt64/include/c++/13.1.0/bits/atomic_futex.h:288:   class __atomic_futex_unsigned
	leaq	48(%rbx), %rcx	 #, tmp101
 # C:/msys64/ucrt64/include/c++/13.1.0/future:344:       virtual ~_State_baseV2() = default;
	movq	%rax, 16(%rbx)	 # tmp109, MEM[(struct _State_baseV2 *)this_2(D) + 16B]._vptr._State_baseV2
 # C:/msys64/ucrt64/include/c++/13.1.0/bits/atomic_futex.h:288:   class __atomic_futex_unsigned
	call	_ZNSt18condition_variableD1Ev	 #
 # C:/msys64/ucrt64/include/c++/13.1.0/bits/std_mutex.h:77:     ~__mutex_base() noexcept { __gthread_mutex_destroy(&_M_mutex); }
	leaq	40(%rbx), %rcx	 #, tmp102
 # C:/msys64/ucrt64/include/c++/13.1.0/x86_64-w64-mingw32/bits/gthr-default.h:740:     return __gthrw_(pthread_mutex_destroy) (__mutex);
	call	pthread_mutex_destroy	 #
 # C:/msys64/ucrt64/include/c++/13.1.0/bits/unique_ptr.h:403: 	if (__ptr != nullptr)
	movq	24(%rbx), %rcx	 # MEM[(struct _Result_base * &)this_2(D) + 24], _15
 # C:/msys64/ucrt64/include/c++/13.1.0/bits/unique_ptr.h:403: 	if (__ptr != nullptr)
	testq	%rcx, %rcx	 # _15
	je	.L265	 #,
 # C:/msys64/ucrt64/include/c++/13.1.0/future:229: 	void operator()(_Result_base* __fr) const { __fr->_M_destroy(); }
	movq	(%rcx), %rax	 # _15->_vptr._Result_base, _16
	leaq	_ZNSt13__future_base7_ResultIvE10_M_destroyEv(%rip), %r8	 #, tmp104
	movq	(%rax), %rdx	 # *_16, _17
	cmpq	%r8, %rdx	 # tmp104, _17
	jne	.L258	 #,
 # C:/msys64/ucrt64/include/c++/13.1.0/future:672:       void _M_destroy() { delete this; }
	movq	16(%rax), %rax	 # MEM[(int (*) () *)_16 + 16B], MEM[(int (*) () *)_16 + 16B]
 # C:/msys64/ucrt64/include/c++/13.1.0/bits/shared_ptr_base.h:614:       }
	addq	$32, %rsp	 #,
	popq	%rbx	 #
 # C:/msys64/ucrt64/include/c++/13.1.0/future:672:       void _M_destroy() { delete this; }
	rex.W jmp	*%rax	 # MEM[(int (*) () *)_16 + 16B]
	.p2align 4,,10
	.p2align 3
.L258:
 # C:/msys64/ucrt64/include/c++/13.1.0/future:229: 	void operator()(_Result_base* __fr) const { __fr->_M_destroy(); }
	call	*%rdx	 # _17
	nop	
.L265:
 # C:/msys64/ucrt64/include/c++/13.1.0/bits/shared_ptr_base.h:614:       }
	addq	$32, %rsp	 #,
	popq	%rbx	 #
	ret	
	.p2align 4,,10
	.p2align 3
.L256:
 # C:/msys64/ucrt64/include/c++/13.1.0/future:229: 	void operator()(_Result_base* __fr) const { __fr->_M_destroy(); }
	call	*%rdx	 # _7
	jmp	.L255	 #
	.seh_handler	__gxx_personality_seh0, @unwind, @except
	.seh_handlerdata
.LLSDA14965:
	.byte	0xff
	.byte	0xff
	.byte	0x1
	.uleb128 .LLSDACSE14965-.LLSDACSB14965
.LLSDACSB14965:
.LLSDACSE14965:
	.section	.text$_ZNSt23_Sp_counted_ptr_inplaceINSt13__future_base15_Deferred_stateINSt6thread8_InvokerISt5tupleIJPFviPK8BoidListPK7BoidMapEiPS5_PS8_EEEEvEESaIvELN9__gnu_cxx12_Lock_policyE2EE10_M_disposeEv,"x"
	.linkonce discard
	.seh_endproc
	.section	.text$_ZNSt23_Sp_counted_ptr_inplaceINSt13__future_base15_Deferred_stateINSt6thread8_InvokerISt5tupleIJPFvibPK7BoidMapPK5RulesPK8BoidListEibS7_SA_SD_EEEEvEESaIvELN9__gnu_cxx12_Lock_policyE2EE10_M_disposeEv,"x"
	.linkonce discard
	.align 2
	.p2align 4
	.globl	_ZNSt23_Sp_counted_ptr_inplaceINSt13__future_base15_Deferred_stateINSt6thread8_InvokerISt5tupleIJPFvibPK7BoidMapPK5RulesPK8BoidListEibS7_SA_SD_EEEEvEESaIvELN9__gnu_cxx12_Lock_policyE2EE10_M_disposeEv
	.def	_ZNSt23_Sp_counted_ptr_inplaceINSt13__future_base15_Deferred_stateINSt6thread8_InvokerISt5tupleIJPFvibPK7BoidMapPK5RulesPK8BoidListEibS7_SA_SD_EEEEvEESaIvELN9__gnu_cxx12_Lock_policyE2EE10_M_disposeEv;	.scl	2;	.type	32;	.endef
	.seh_proc	_ZNSt23_Sp_counted_ptr_inplaceINSt13__future_base15_Deferred_stateINSt6thread8_InvokerISt5tupleIJPFvibPK7BoidMapPK5RulesPK8BoidListEibS7_SA_SD_EEEEvEESaIvELN9__gnu_cxx12_Lock_policyE2EE10_M_disposeEv
_ZNSt23_Sp_counted_ptr_inplaceINSt13__future_base15_Deferred_stateINSt6thread8_InvokerISt5tupleIJPFvibPK7BoidMapPK5RulesPK8BoidListEibS7_SA_SD_EEEEvEESaIvELN9__gnu_cxx12_Lock_policyE2EE10_M_disposeEv:
.LFB14951:
	pushq	%rbx	 #
	.seh_pushreg	%rbx
	subq	$32, %rsp	 #,
	.seh_stackalloc	32
	.seh_endprologue
 # C:/msys64/ucrt64/include/c++/13.1.0/future:1679:     class __future_base::_Deferred_state final
	leaq	16+_ZTVNSt13__future_base15_Deferred_stateINSt6thread8_InvokerISt5tupleIJPFvibPK7BoidMapPK5RulesPK8BoidListEibS6_S9_SC_EEEEvEE(%rip), %rax	 #, tmp108
	movq	%rax, 16(%rcx)	 # tmp108, MEM[(struct _Deferred_state *)this_2(D) + 16B].D.197963._vptr._State_baseV2
 # C:/msys64/ucrt64/include/c++/13.1.0/bits/shared_ptr_base.h:611:       _M_dispose() noexcept
	movq	%rcx, %rbx	 # tmp106, this
 # C:/msys64/ucrt64/include/c++/13.1.0/bits/unique_ptr.h:403: 	if (__ptr != nullptr)
	movq	64(%rcx), %rcx	 # MEM[(struct _Result * &)this_2(D) + 64], _5
 # C:/msys64/ucrt64/include/c++/13.1.0/bits/unique_ptr.h:403: 	if (__ptr != nullptr)
	testq	%rcx, %rcx	 # _5
	je	.L267	 #,
 # C:/msys64/ucrt64/include/c++/13.1.0/future:229: 	void operator()(_Result_base* __fr) const { __fr->_M_destroy(); }
	movq	(%rcx), %rax	 # MEM[(struct _Result_base *)_5]._vptr._Result_base, _6
	leaq	_ZNSt13__future_base7_ResultIvE10_M_destroyEv(%rip), %r8	 #, tmp97
	movq	(%rax), %rdx	 # *_6, _7
	cmpq	%r8, %rdx	 # tmp97, _7
	jne	.L268	 #,
 # C:/msys64/ucrt64/include/c++/13.1.0/future:672:       void _M_destroy() { delete this; }
	call	*16(%rax)	 # MEM[(int (*) () *)_6 + 16B]
.L267:
 # C:/msys64/ucrt64/include/c++/13.1.0/future:344:       virtual ~_State_baseV2() = default;
	leaq	16+_ZTVNSt13__future_base13_State_baseV2E(%rip), %rax	 #, tmp109
 # C:/msys64/ucrt64/include/c++/13.1.0/bits/atomic_futex.h:288:   class __atomic_futex_unsigned
	leaq	48(%rbx), %rcx	 #, tmp101
 # C:/msys64/ucrt64/include/c++/13.1.0/future:344:       virtual ~_State_baseV2() = default;
	movq	%rax, 16(%rbx)	 # tmp109, MEM[(struct _State_baseV2 *)this_2(D) + 16B]._vptr._State_baseV2
 # C:/msys64/ucrt64/include/c++/13.1.0/bits/atomic_futex.h:288:   class __atomic_futex_unsigned
	call	_ZNSt18condition_variableD1Ev	 #
 # C:/msys64/ucrt64/include/c++/13.1.0/bits/std_mutex.h:77:     ~__mutex_base() noexcept { __gthread_mutex_destroy(&_M_mutex); }
	leaq	40(%rbx), %rcx	 #, tmp102
 # C:/msys64/ucrt64/include/c++/13.1.0/x86_64-w64-mingw32/bits/gthr-default.h:740:     return __gthrw_(pthread_mutex_destroy) (__mutex);
	call	pthread_mutex_destroy	 #
 # C:/msys64/ucrt64/include/c++/13.1.0/bits/unique_ptr.h:403: 	if (__ptr != nullptr)
	movq	24(%rbx), %rcx	 # MEM[(struct _Result_base * &)this_2(D) + 24], _15
 # C:/msys64/ucrt64/include/c++/13.1.0/bits/unique_ptr.h:403: 	if (__ptr != nullptr)
	testq	%rcx, %rcx	 # _15
	je	.L277	 #,
 # C:/msys64/ucrt64/include/c++/13.1.0/future:229: 	void operator()(_Result_base* __fr) const { __fr->_M_destroy(); }
	movq	(%rcx), %rax	 # _15->_vptr._Result_base, _16
	leaq	_ZNSt13__future_base7_ResultIvE10_M_destroyEv(%rip), %r8	 #, tmp104
	movq	(%rax), %rdx	 # *_16, _17
	cmpq	%r8, %rdx	 # tmp104, _17
	jne	.L270	 #,
 # C:/msys64/ucrt64/include/c++/13.1.0/future:672:       void _M_destroy() { delete this; }
	movq	16(%rax), %rax	 # MEM[(int (*) () *)_16 + 16B], MEM[(int (*) () *)_16 + 16B]
 # C:/msys64/ucrt64/include/c++/13.1.0/bits/shared_ptr_base.h:614:       }
	addq	$32, %rsp	 #,
	popq	%rbx	 #
 # C:/msys64/ucrt64/include/c++/13.1.0/future:672:       void _M_destroy() { delete this; }
	rex.W jmp	*%rax	 # MEM[(int (*) () *)_16 + 16B]
	.p2align 4,,10
	.p2align 3
.L270:
 # C:/msys64/ucrt64/include/c++/13.1.0/future:229: 	void operator()(_Result_base* __fr) const { __fr->_M_destroy(); }
	call	*%rdx	 # _17
	nop	
.L277:
 # C:/msys64/ucrt64/include/c++/13.1.0/bits/shared_ptr_base.h:614:       }
	addq	$32, %rsp	 #,
	popq	%rbx	 #
	ret	
	.p2align 4,,10
	.p2align 3
.L268:
 # C:/msys64/ucrt64/include/c++/13.1.0/future:229: 	void operator()(_Result_base* __fr) const { __fr->_M_destroy(); }
	call	*%rdx	 # _7
	jmp	.L267	 #
	.seh_handler	__gxx_personality_seh0, @unwind, @except
	.seh_handlerdata
.LLSDA14951:
	.byte	0xff
	.byte	0xff
	.byte	0x1
	.uleb128 .LLSDACSE14951-.LLSDACSB14951
.LLSDACSB14951:
.LLSDACSE14951:
	.section	.text$_ZNSt23_Sp_counted_ptr_inplaceINSt13__future_base15_Deferred_stateINSt6thread8_InvokerISt5tupleIJPFvibPK7BoidMapPK5RulesPK8BoidListEibS7_SA_SD_EEEEvEESaIvELN9__gnu_cxx12_Lock_policyE2EE10_M_disposeEv,"x"
	.linkonce discard
	.seh_endproc
	.section	.text$_ZNSt13__future_base15_Deferred_stateINSt6thread8_InvokerISt5tupleIJPFvibPK7BoidMapPK5RulesPK8BoidListEibS6_S9_SC_EEEEvED1Ev,"x"
	.linkonce discard
	.align 2
	.p2align 4
	.globl	_ZNSt13__future_base15_Deferred_stateINSt6thread8_InvokerISt5tupleIJPFvibPK7BoidMapPK5RulesPK8BoidListEibS6_S9_SC_EEEEvED1Ev
	.def	_ZNSt13__future_base15_Deferred_stateINSt6thread8_InvokerISt5tupleIJPFvibPK7BoidMapPK5RulesPK8BoidListEibS6_S9_SC_EEEEvED1Ev;	.scl	2;	.type	32;	.endef
	.seh_proc	_ZNSt13__future_base15_Deferred_stateINSt6thread8_InvokerISt5tupleIJPFvibPK7BoidMapPK5RulesPK8BoidListEibS6_S9_SC_EEEEvED1Ev
_ZNSt13__future_base15_Deferred_stateINSt6thread8_InvokerISt5tupleIJPFvibPK7BoidMapPK5RulesPK8BoidListEibS6_S9_SC_EEEEvED1Ev:
.LFB14929:
	pushq	%rbx	 #
	.seh_pushreg	%rbx
	subq	$32, %rsp	 #,
	.seh_stackalloc	32
	.seh_endprologue
 # C:/msys64/ucrt64/include/c++/13.1.0/future:1679:     class __future_base::_Deferred_state final
	leaq	16+_ZTVNSt13__future_base15_Deferred_stateINSt6thread8_InvokerISt5tupleIJPFvibPK7BoidMapPK5RulesPK8BoidListEibS6_S9_SC_EEEEvEE(%rip), %rax	 #, tmp108
	movq	%rax, (%rcx)	 # tmp108, this_3(D)->D.197963._vptr._State_baseV2
	movq	%rcx, %rbx	 # tmp106, this
 # C:/msys64/ucrt64/include/c++/13.1.0/bits/unique_ptr.h:403: 	if (__ptr != nullptr)
	movq	48(%rcx), %rcx	 # MEM[(struct _Result * &)this_3(D) + 48], _7
 # C:/msys64/ucrt64/include/c++/13.1.0/bits/unique_ptr.h:403: 	if (__ptr != nullptr)
	testq	%rcx, %rcx	 # _7
	je	.L279	 #,
 # C:/msys64/ucrt64/include/c++/13.1.0/future:229: 	void operator()(_Result_base* __fr) const { __fr->_M_destroy(); }
	movq	(%rcx), %rax	 # MEM[(struct _Result_base *)_7]._vptr._Result_base, _8
	leaq	_ZNSt13__future_base7_ResultIvE10_M_destroyEv(%rip), %r8	 #, tmp97
	movq	(%rax), %rdx	 # *_8, _9
	cmpq	%r8, %rdx	 # tmp97, _9
	jne	.L280	 #,
 # C:/msys64/ucrt64/include/c++/13.1.0/future:672:       void _M_destroy() { delete this; }
	call	*16(%rax)	 # MEM[(int (*) () *)_8 + 16B]
.L279:
 # C:/msys64/ucrt64/include/c++/13.1.0/future:344:       virtual ~_State_baseV2() = default;
	leaq	16+_ZTVNSt13__future_base13_State_baseV2E(%rip), %rax	 #, tmp109
 # C:/msys64/ucrt64/include/c++/13.1.0/bits/atomic_futex.h:288:   class __atomic_futex_unsigned
	leaq	32(%rbx), %rcx	 #, tmp101
 # C:/msys64/ucrt64/include/c++/13.1.0/future:344:       virtual ~_State_baseV2() = default;
	movq	%rax, (%rbx)	 # tmp109, MEM[(struct _State_baseV2 *)this_3(D)]._vptr._State_baseV2
 # C:/msys64/ucrt64/include/c++/13.1.0/bits/atomic_futex.h:288:   class __atomic_futex_unsigned
	call	_ZNSt18condition_variableD1Ev	 #
 # C:/msys64/ucrt64/include/c++/13.1.0/bits/std_mutex.h:77:     ~__mutex_base() noexcept { __gthread_mutex_destroy(&_M_mutex); }
	leaq	24(%rbx), %rcx	 #, tmp102
 # C:/msys64/ucrt64/include/c++/13.1.0/x86_64-w64-mingw32/bits/gthr-default.h:740:     return __gthrw_(pthread_mutex_destroy) (__mutex);
	call	pthread_mutex_destroy	 #
 # C:/msys64/ucrt64/include/c++/13.1.0/bits/unique_ptr.h:403: 	if (__ptr != nullptr)
	movq	8(%rbx), %rcx	 # MEM[(struct _Result_base * &)this_3(D) + 8], _19
 # C:/msys64/ucrt64/include/c++/13.1.0/bits/unique_ptr.h:403: 	if (__ptr != nullptr)
	testq	%rcx, %rcx	 # _19
	je	.L289	 #,
 # C:/msys64/ucrt64/include/c++/13.1.0/future:229: 	void operator()(_Result_base* __fr) const { __fr->_M_destroy(); }
	movq	(%rcx), %rax	 # _19->_vptr._Result_base, _20
	leaq	_ZNSt13__future_base7_ResultIvE10_M_destroyEv(%rip), %r8	 #, tmp104
	movq	(%rax), %rdx	 # *_20, _21
	cmpq	%r8, %rdx	 # tmp104, _21
	jne	.L282	 #,
 # C:/msys64/ucrt64/include/c++/13.1.0/future:672:       void _M_destroy() { delete this; }
	movq	16(%rax), %rax	 # MEM[(int (*) () *)_20 + 16B], MEM[(int (*) () *)_20 + 16B]
 # C:/msys64/ucrt64/include/c++/13.1.0/future:1679:     class __future_base::_Deferred_state final
	addq	$32, %rsp	 #,
	popq	%rbx	 #
 # C:/msys64/ucrt64/include/c++/13.1.0/future:672:       void _M_destroy() { delete this; }
	rex.W jmp	*%rax	 # MEM[(int (*) () *)_20 + 16B]
	.p2align 4,,10
	.p2align 3
.L282:
 # C:/msys64/ucrt64/include/c++/13.1.0/future:229: 	void operator()(_Result_base* __fr) const { __fr->_M_destroy(); }
	call	*%rdx	 # _21
	nop	
.L289:
 # C:/msys64/ucrt64/include/c++/13.1.0/future:1679:     class __future_base::_Deferred_state final
	addq	$32, %rsp	 #,
	popq	%rbx	 #
	ret	
	.p2align 4,,10
	.p2align 3
.L280:
 # C:/msys64/ucrt64/include/c++/13.1.0/future:229: 	void operator()(_Result_base* __fr) const { __fr->_M_destroy(); }
	call	*%rdx	 # _9
	jmp	.L279	 #
	.seh_handler	__gxx_personality_seh0, @unwind, @except
	.seh_handlerdata
.LLSDA14929:
	.byte	0xff
	.byte	0xff
	.byte	0x1
	.uleb128 .LLSDACSE14929-.LLSDACSB14929
.LLSDACSB14929:
.LLSDACSE14929:
	.section	.text$_ZNSt13__future_base15_Deferred_stateINSt6thread8_InvokerISt5tupleIJPFvibPK7BoidMapPK5RulesPK8BoidListEibS6_S9_SC_EEEEvED1Ev,"x"
	.linkonce discard
	.seh_endproc
	.section	.text$_ZNSt13__future_base15_Deferred_stateINSt6thread8_InvokerISt5tupleIJPFviPK8BoidListPK7BoidMapEiPS4_PS7_EEEEvED1Ev,"x"
	.linkonce discard
	.align 2
	.p2align 4
	.globl	_ZNSt13__future_base15_Deferred_stateINSt6thread8_InvokerISt5tupleIJPFviPK8BoidListPK7BoidMapEiPS4_PS7_EEEEvED1Ev
	.def	_ZNSt13__future_base15_Deferred_stateINSt6thread8_InvokerISt5tupleIJPFviPK8BoidListPK7BoidMapEiPS4_PS7_EEEEvED1Ev;	.scl	2;	.type	32;	.endef
	.seh_proc	_ZNSt13__future_base15_Deferred_stateINSt6thread8_InvokerISt5tupleIJPFviPK8BoidListPK7BoidMapEiPS4_PS7_EEEEvED1Ev
_ZNSt13__future_base15_Deferred_stateINSt6thread8_InvokerISt5tupleIJPFviPK8BoidListPK7BoidMapEiPS4_PS7_EEEEvED1Ev:
.LFB14933:
	pushq	%rbx	 #
	.seh_pushreg	%rbx
	subq	$32, %rsp	 #,
	.seh_stackalloc	32
	.seh_endprologue
 # C:/msys64/ucrt64/include/c++/13.1.0/future:1679:     class __future_base::_Deferred_state final
	leaq	16+_ZTVNSt13__future_base15_Deferred_stateINSt6thread8_InvokerISt5tupleIJPFviPK8BoidListPK7BoidMapEiPS4_PS7_EEEEvEE(%rip), %rax	 #, tmp108
	movq	%rax, (%rcx)	 # tmp108, this_3(D)->D.191400._vptr._State_baseV2
	movq	%rcx, %rbx	 # tmp106, this
 # C:/msys64/ucrt64/include/c++/13.1.0/bits/unique_ptr.h:403: 	if (__ptr != nullptr)
	movq	48(%rcx), %rcx	 # MEM[(struct _Result * &)this_3(D) + 48], _7
 # C:/msys64/ucrt64/include/c++/13.1.0/bits/unique_ptr.h:403: 	if (__ptr != nullptr)
	testq	%rcx, %rcx	 # _7
	je	.L291	 #,
 # C:/msys64/ucrt64/include/c++/13.1.0/future:229: 	void operator()(_Result_base* __fr) const { __fr->_M_destroy(); }
	movq	(%rcx), %rax	 # MEM[(struct _Result_base *)_7]._vptr._Result_base, _8
	leaq	_ZNSt13__future_base7_ResultIvE10_M_destroyEv(%rip), %r8	 #, tmp97
	movq	(%rax), %rdx	 # *_8, _9
	cmpq	%r8, %rdx	 # tmp97, _9
	jne	.L292	 #,
 # C:/msys64/ucrt64/include/c++/13.1.0/future:672:       void _M_destroy() { delete this; }
	call	*16(%rax)	 # MEM[(int (*) () *)_8 + 16B]
.L291:
 # C:/msys64/ucrt64/include/c++/13.1.0/future:344:       virtual ~_State_baseV2() = default;
	leaq	16+_ZTVNSt13__future_base13_State_baseV2E(%rip), %rax	 #, tmp109
 # C:/msys64/ucrt64/include/c++/13.1.0/bits/atomic_futex.h:288:   class __atomic_futex_unsigned
	leaq	32(%rbx), %rcx	 #, tmp101
 # C:/msys64/ucrt64/include/c++/13.1.0/future:344:       virtual ~_State_baseV2() = default;
	movq	%rax, (%rbx)	 # tmp109, MEM[(struct _State_baseV2 *)this_3(D)]._vptr._State_baseV2
 # C:/msys64/ucrt64/include/c++/13.1.0/bits/atomic_futex.h:288:   class __atomic_futex_unsigned
	call	_ZNSt18condition_variableD1Ev	 #
 # C:/msys64/ucrt64/include/c++/13.1.0/bits/std_mutex.h:77:     ~__mutex_base() noexcept { __gthread_mutex_destroy(&_M_mutex); }
	leaq	24(%rbx), %rcx	 #, tmp102
 # C:/msys64/ucrt64/include/c++/13.1.0/x86_64-w64-mingw32/bits/gthr-default.h:740:     return __gthrw_(pthread_mutex_destroy) (__mutex);
	call	pthread_mutex_destroy	 #
 # C:/msys64/ucrt64/include/c++/13.1.0/bits/unique_ptr.h:403: 	if (__ptr != nullptr)
	movq	8(%rbx), %rcx	 # MEM[(struct _Result_base * &)this_3(D) + 8], _19
 # C:/msys64/ucrt64/include/c++/13.1.0/bits/unique_ptr.h:403: 	if (__ptr != nullptr)
	testq	%rcx, %rcx	 # _19
	je	.L301	 #,
 # C:/msys64/ucrt64/include/c++/13.1.0/future:229: 	void operator()(_Result_base* __fr) const { __fr->_M_destroy(); }
	movq	(%rcx), %rax	 # _19->_vptr._Result_base, _20
	leaq	_ZNSt13__future_base7_ResultIvE10_M_destroyEv(%rip), %r8	 #, tmp104
	movq	(%rax), %rdx	 # *_20, _21
	cmpq	%r8, %rdx	 # tmp104, _21
	jne	.L294	 #,
 # C:/msys64/ucrt64/include/c++/13.1.0/future:672:       void _M_destroy() { delete this; }
	movq	16(%rax), %rax	 # MEM[(int (*) () *)_20 + 16B], MEM[(int (*) () *)_20 + 16B]
 # C:/msys64/ucrt64/include/c++/13.1.0/future:1679:     class __future_base::_Deferred_state final
	addq	$32, %rsp	 #,
	popq	%rbx	 #
 # C:/msys64/ucrt64/include/c++/13.1.0/future:672:       void _M_destroy() { delete this; }
	rex.W jmp	*%rax	 # MEM[(int (*) () *)_20 + 16B]
	.p2align 4,,10
	.p2align 3
.L294:
 # C:/msys64/ucrt64/include/c++/13.1.0/future:229: 	void operator()(_Result_base* __fr) const { __fr->_M_destroy(); }
	call	*%rdx	 # _21
	nop	
.L301:
 # C:/msys64/ucrt64/include/c++/13.1.0/future:1679:     class __future_base::_Deferred_state final
	addq	$32, %rsp	 #,
	popq	%rbx	 #
	ret	
	.p2align 4,,10
	.p2align 3
.L292:
 # C:/msys64/ucrt64/include/c++/13.1.0/future:229: 	void operator()(_Result_base* __fr) const { __fr->_M_destroy(); }
	call	*%rdx	 # _9
	jmp	.L291	 #
	.seh_handler	__gxx_personality_seh0, @unwind, @except
	.seh_handlerdata
.LLSDA14933:
	.byte	0xff
	.byte	0xff
	.byte	0x1
	.uleb128 .LLSDACSE14933-.LLSDACSB14933
.LLSDACSB14933:
.LLSDACSE14933:
	.section	.text$_ZNSt13__future_base15_Deferred_stateINSt6thread8_InvokerISt5tupleIJPFviPK8BoidListPK7BoidMapEiPS4_PS7_EEEEvED1Ev,"x"
	.linkonce discard
	.seh_endproc
	.section	.text$_ZNSt13__future_base15_Deferred_stateINSt6thread8_InvokerISt5tupleIJPFvibPK7BoidMapPK5RulesPK8BoidListEibS6_S9_SC_EEEEvED0Ev,"x"
	.linkonce discard
	.align 2
	.p2align 4
	.globl	_ZNSt13__future_base15_Deferred_stateINSt6thread8_InvokerISt5tupleIJPFvibPK7BoidMapPK5RulesPK8BoidListEibS6_S9_SC_EEEEvED0Ev
	.def	_ZNSt13__future_base15_Deferred_stateINSt6thread8_InvokerISt5tupleIJPFvibPK7BoidMapPK5RulesPK8BoidListEibS6_S9_SC_EEEEvED0Ev;	.scl	2;	.type	32;	.endef
	.seh_proc	_ZNSt13__future_base15_Deferred_stateINSt6thread8_InvokerISt5tupleIJPFvibPK7BoidMapPK5RulesPK8BoidListEibS6_S9_SC_EEEEvED0Ev
_ZNSt13__future_base15_Deferred_stateINSt6thread8_InvokerISt5tupleIJPFvibPK7BoidMapPK5RulesPK8BoidListEibS6_S9_SC_EEEEvED0Ev:
.LFB14930:
	pushq	%rbx	 #
	.seh_pushreg	%rbx
	subq	$32, %rsp	 #,
	.seh_stackalloc	32
	.seh_endprologue
 # C:/msys64/ucrt64/include/c++/13.1.0/future:1679:     class __future_base::_Deferred_state final
	leaq	16+_ZTVNSt13__future_base15_Deferred_stateINSt6thread8_InvokerISt5tupleIJPFvibPK7BoidMapPK5RulesPK8BoidListEibS6_S9_SC_EEEEvEE(%rip), %rax	 #, tmp108
	movq	%rax, (%rcx)	 # tmp108, this_2(D)->D.197963._vptr._State_baseV2
	movq	%rcx, %rbx	 # tmp106, this
 # C:/msys64/ucrt64/include/c++/13.1.0/bits/unique_ptr.h:403: 	if (__ptr != nullptr)
	movq	48(%rcx), %rcx	 # MEM[(struct _Result * &)this_2(D) + 48], _5
 # C:/msys64/ucrt64/include/c++/13.1.0/bits/unique_ptr.h:403: 	if (__ptr != nullptr)
	testq	%rcx, %rcx	 # _5
	je	.L303	 #,
 # C:/msys64/ucrt64/include/c++/13.1.0/future:229: 	void operator()(_Result_base* __fr) const { __fr->_M_destroy(); }
	movq	(%rcx), %rax	 # MEM[(struct _Result_base *)_5]._vptr._Result_base, _6
	leaq	_ZNSt13__future_base7_ResultIvE10_M_destroyEv(%rip), %r8	 #, tmp97
	movq	(%rax), %rdx	 # *_6, _7
	cmpq	%r8, %rdx	 # tmp97, _7
	jne	.L304	 #,
 # C:/msys64/ucrt64/include/c++/13.1.0/future:672:       void _M_destroy() { delete this; }
	call	*16(%rax)	 # MEM[(int (*) () *)_6 + 16B]
.L303:
 # C:/msys64/ucrt64/include/c++/13.1.0/future:344:       virtual ~_State_baseV2() = default;
	leaq	16+_ZTVNSt13__future_base13_State_baseV2E(%rip), %rax	 #, tmp109
 # C:/msys64/ucrt64/include/c++/13.1.0/bits/atomic_futex.h:288:   class __atomic_futex_unsigned
	leaq	32(%rbx), %rcx	 #, tmp101
 # C:/msys64/ucrt64/include/c++/13.1.0/future:344:       virtual ~_State_baseV2() = default;
	movq	%rax, (%rbx)	 # tmp109, MEM[(struct _State_baseV2 *)this_2(D)]._vptr._State_baseV2
 # C:/msys64/ucrt64/include/c++/13.1.0/bits/atomic_futex.h:288:   class __atomic_futex_unsigned
	call	_ZNSt18condition_variableD1Ev	 #
 # C:/msys64/ucrt64/include/c++/13.1.0/bits/std_mutex.h:77:     ~__mutex_base() noexcept { __gthread_mutex_destroy(&_M_mutex); }
	leaq	24(%rbx), %rcx	 #, tmp102
 # C:/msys64/ucrt64/include/c++/13.1.0/x86_64-w64-mingw32/bits/gthr-default.h:740:     return __gthrw_(pthread_mutex_destroy) (__mutex);
	call	pthread_mutex_destroy	 #
 # C:/msys64/ucrt64/include/c++/13.1.0/bits/unique_ptr.h:403: 	if (__ptr != nullptr)
	movq	8(%rbx), %rcx	 # MEM[(struct _Result_base * &)this_2(D) + 8], _15
 # C:/msys64/ucrt64/include/c++/13.1.0/bits/unique_ptr.h:403: 	if (__ptr != nullptr)
	testq	%rcx, %rcx	 # _15
	je	.L305	 #,
 # C:/msys64/ucrt64/include/c++/13.1.0/future:229: 	void operator()(_Result_base* __fr) const { __fr->_M_destroy(); }
	movq	(%rcx), %rax	 # _15->_vptr._Result_base, _16
	leaq	_ZNSt13__future_base7_ResultIvE10_M_destroyEv(%rip), %r8	 #, tmp104
	movq	(%rax), %rdx	 # *_16, _17
	cmpq	%r8, %rdx	 # tmp104, _17
	jne	.L306	 #,
 # C:/msys64/ucrt64/include/c++/13.1.0/future:672:       void _M_destroy() { delete this; }
	call	*16(%rax)	 # MEM[(int (*) () *)_16 + 16B]
.L305:
 # C:/msys64/ucrt64/include/c++/13.1.0/future:1679:     class __future_base::_Deferred_state final
	movl	$96, %edx	 #,
	movq	%rbx, %rcx	 # this,
 # C:/msys64/ucrt64/include/c++/13.1.0/future:1679:     class __future_base::_Deferred_state final
	addq	$32, %rsp	 #,
	popq	%rbx	 #
 # C:/msys64/ucrt64/include/c++/13.1.0/future:1679:     class __future_base::_Deferred_state final
	jmp	_ZdlPvy	 #
	.p2align 4,,10
	.p2align 3
.L304:
 # C:/msys64/ucrt64/include/c++/13.1.0/future:229: 	void operator()(_Result_base* __fr) const { __fr->_M_destroy(); }
	call	*%rdx	 # _7
	jmp	.L303	 #
	.p2align 4,,10
	.p2align 3
.L306:
	call	*%rdx	 # _17
	jmp	.L305	 #
	.seh_handler	__gxx_personality_seh0, @unwind, @except
	.seh_handlerdata
.LLSDA14930:
	.byte	0xff
	.byte	0xff
	.byte	0x1
	.uleb128 .LLSDACSE14930-.LLSDACSB14930
.LLSDACSB14930:
.LLSDACSE14930:
	.section	.text$_ZNSt13__future_base15_Deferred_stateINSt6thread8_InvokerISt5tupleIJPFvibPK7BoidMapPK5RulesPK8BoidListEibS6_S9_SC_EEEEvED0Ev,"x"
	.linkonce discard
	.seh_endproc
	.section	.text$_ZNSt13__future_base15_Deferred_stateINSt6thread8_InvokerISt5tupleIJPFviPK8BoidListPK7BoidMapEiPS4_PS7_EEEEvED0Ev,"x"
	.linkonce discard
	.align 2
	.p2align 4
	.globl	_ZNSt13__future_base15_Deferred_stateINSt6thread8_InvokerISt5tupleIJPFviPK8BoidListPK7BoidMapEiPS4_PS7_EEEEvED0Ev
	.def	_ZNSt13__future_base15_Deferred_stateINSt6thread8_InvokerISt5tupleIJPFviPK8BoidListPK7BoidMapEiPS4_PS7_EEEEvED0Ev;	.scl	2;	.type	32;	.endef
	.seh_proc	_ZNSt13__future_base15_Deferred_stateINSt6thread8_InvokerISt5tupleIJPFviPK8BoidListPK7BoidMapEiPS4_PS7_EEEEvED0Ev
_ZNSt13__future_base15_Deferred_stateINSt6thread8_InvokerISt5tupleIJPFviPK8BoidListPK7BoidMapEiPS4_PS7_EEEEvED0Ev:
.LFB14934:
	pushq	%rbx	 #
	.seh_pushreg	%rbx
	subq	$32, %rsp	 #,
	.seh_stackalloc	32
	.seh_endprologue
 # C:/msys64/ucrt64/include/c++/13.1.0/future:1679:     class __future_base::_Deferred_state final
	leaq	16+_ZTVNSt13__future_base15_Deferred_stateINSt6thread8_InvokerISt5tupleIJPFviPK8BoidListPK7BoidMapEiPS4_PS7_EEEEvEE(%rip), %rax	 #, tmp108
	movq	%rax, (%rcx)	 # tmp108, this_2(D)->D.191400._vptr._State_baseV2
	movq	%rcx, %rbx	 # tmp106, this
 # C:/msys64/ucrt64/include/c++/13.1.0/bits/unique_ptr.h:403: 	if (__ptr != nullptr)
	movq	48(%rcx), %rcx	 # MEM[(struct _Result * &)this_2(D) + 48], _5
 # C:/msys64/ucrt64/include/c++/13.1.0/bits/unique_ptr.h:403: 	if (__ptr != nullptr)
	testq	%rcx, %rcx	 # _5
	je	.L314	 #,
 # C:/msys64/ucrt64/include/c++/13.1.0/future:229: 	void operator()(_Result_base* __fr) const { __fr->_M_destroy(); }
	movq	(%rcx), %rax	 # MEM[(struct _Result_base *)_5]._vptr._Result_base, _6
	leaq	_ZNSt13__future_base7_ResultIvE10_M_destroyEv(%rip), %r8	 #, tmp97
	movq	(%rax), %rdx	 # *_6, _7
	cmpq	%r8, %rdx	 # tmp97, _7
	jne	.L315	 #,
 # C:/msys64/ucrt64/include/c++/13.1.0/future:672:       void _M_destroy() { delete this; }
	call	*16(%rax)	 # MEM[(int (*) () *)_6 + 16B]
.L314:
 # C:/msys64/ucrt64/include/c++/13.1.0/future:344:       virtual ~_State_baseV2() = default;
	leaq	16+_ZTVNSt13__future_base13_State_baseV2E(%rip), %rax	 #, tmp109
 # C:/msys64/ucrt64/include/c++/13.1.0/bits/atomic_futex.h:288:   class __atomic_futex_unsigned
	leaq	32(%rbx), %rcx	 #, tmp101
 # C:/msys64/ucrt64/include/c++/13.1.0/future:344:       virtual ~_State_baseV2() = default;
	movq	%rax, (%rbx)	 # tmp109, MEM[(struct _State_baseV2 *)this_2(D)]._vptr._State_baseV2
 # C:/msys64/ucrt64/include/c++/13.1.0/bits/atomic_futex.h:288:   class __atomic_futex_unsigned
	call	_ZNSt18condition_variableD1Ev	 #
 # C:/msys64/ucrt64/include/c++/13.1.0/bits/std_mutex.h:77:     ~__mutex_base() noexcept { __gthread_mutex_destroy(&_M_mutex); }
	leaq	24(%rbx), %rcx	 #, tmp102
 # C:/msys64/ucrt64/include/c++/13.1.0/x86_64-w64-mingw32/bits/gthr-default.h:740:     return __gthrw_(pthread_mutex_destroy) (__mutex);
	call	pthread_mutex_destroy	 #
 # C:/msys64/ucrt64/include/c++/13.1.0/bits/unique_ptr.h:403: 	if (__ptr != nullptr)
	movq	8(%rbx), %rcx	 # MEM[(struct _Result_base * &)this_2(D) + 8], _15
 # C:/msys64/ucrt64/include/c++/13.1.0/bits/unique_ptr.h:403: 	if (__ptr != nullptr)
	testq	%rcx, %rcx	 # _15
	je	.L316	 #,
 # C:/msys64/ucrt64/include/c++/13.1.0/future:229: 	void operator()(_Result_base* __fr) const { __fr->_M_destroy(); }
	movq	(%rcx), %rax	 # _15->_vptr._Result_base, _16
	leaq	_ZNSt13__future_base7_ResultIvE10_M_destroyEv(%rip), %r8	 #, tmp104
	movq	(%rax), %rdx	 # *_16, _17
	cmpq	%r8, %rdx	 # tmp104, _17
	jne	.L317	 #,
 # C:/msys64/ucrt64/include/c++/13.1.0/future:672:       void _M_destroy() { delete this; }
	call	*16(%rax)	 # MEM[(int (*) () *)_16 + 16B]
.L316:
 # C:/msys64/ucrt64/include/c++/13.1.0/future:1679:     class __future_base::_Deferred_state final
	movl	$88, %edx	 #,
	movq	%rbx, %rcx	 # this,
 # C:/msys64/ucrt64/include/c++/13.1.0/future:1679:     class __future_base::_Deferred_state final
	addq	$32, %rsp	 #,
	popq	%rbx	 #
 # C:/msys64/ucrt64/include/c++/13.1.0/future:1679:     class __future_base::_Deferred_state final
	jmp	_ZdlPvy	 #
	.p2align 4,,10
	.p2align 3
.L315:
 # C:/msys64/ucrt64/include/c++/13.1.0/future:229: 	void operator()(_Result_base* __fr) const { __fr->_M_destroy(); }
	call	*%rdx	 # _7
	jmp	.L314	 #
	.p2align 4,,10
	.p2align 3
.L317:
	call	*%rdx	 # _17
	jmp	.L316	 #
	.seh_handler	__gxx_personality_seh0, @unwind, @except
	.seh_handlerdata
.LLSDA14934:
	.byte	0xff
	.byte	0xff
	.byte	0x1
	.uleb128 .LLSDACSE14934-.LLSDACSB14934
.LLSDACSB14934:
.LLSDACSE14934:
	.section	.text$_ZNSt13__future_base15_Deferred_stateINSt6thread8_InvokerISt5tupleIJPFviPK8BoidListPK7BoidMapEiPS4_PS7_EEEEvED0Ev,"x"
	.linkonce discard
	.seh_endproc
	.section	.text$_ZNSt23_Sp_counted_ptr_inplaceINSt13__future_base17_Async_state_implINSt6thread8_InvokerISt5tupleIJPFvibPK7BoidMapPK5RulesPK8BoidListEibS7_SA_SD_EEEEvEESaIvELN9__gnu_cxx12_Lock_policyE2EE10_M_disposeEv,"x"
	.linkonce discard
	.align 2
	.p2align 4
	.globl	_ZNSt23_Sp_counted_ptr_inplaceINSt13__future_base17_Async_state_implINSt6thread8_InvokerISt5tupleIJPFvibPK7BoidMapPK5RulesPK8BoidListEibS7_SA_SD_EEEEvEESaIvELN9__gnu_cxx12_Lock_policyE2EE10_M_disposeEv
	.def	_ZNSt23_Sp_counted_ptr_inplaceINSt13__future_base17_Async_state_implINSt6thread8_InvokerISt5tupleIJPFvibPK7BoidMapPK5RulesPK8BoidListEibS7_SA_SD_EEEEvEESaIvELN9__gnu_cxx12_Lock_policyE2EE10_M_disposeEv;	.scl	2;	.type	32;	.endef
	.seh_proc	_ZNSt23_Sp_counted_ptr_inplaceINSt13__future_base17_Async_state_implINSt6thread8_InvokerISt5tupleIJPFvibPK7BoidMapPK5RulesPK8BoidListEibS7_SA_SD_EEEEvEESaIvELN9__gnu_cxx12_Lock_policyE2EE10_M_disposeEv
_ZNSt23_Sp_counted_ptr_inplaceINSt13__future_base17_Async_state_implINSt6thread8_InvokerISt5tupleIJPFvibPK7BoidMapPK5RulesPK8BoidListEibS7_SA_SD_EEEEvEESaIvELN9__gnu_cxx12_Lock_policyE2EE10_M_disposeEv:
.LFB14958:
	pushq	%rbx	 #
	.seh_pushreg	%rbx
	subq	$32, %rsp	 #,
	.seh_stackalloc	32
	.seh_endprologue
 # C:/msys64/ucrt64/include/c++/13.1.0/future:1766:       }
	leaq	16+_ZTVNSt13__future_base17_Async_state_implINSt6thread8_InvokerISt5tupleIJPFvibPK7BoidMapPK5RulesPK8BoidListEibS6_S9_SC_EEEEvEE(%rip), %rax	 #, tmp114
 # C:/msys64/ucrt64/include/c++/13.1.0/future:1764: 	if (_M_thread.joinable())
	cmpq	$0, 64(%rcx)	 #, MEM[(const struct thread *)this_2(D) + 64B]._M_id._M_thread
 # C:/msys64/ucrt64/include/c++/13.1.0/future:1766:       }
	movq	%rax, 16(%rcx)	 # tmp114, MEM[(struct _Async_state_impl *)this_2(D) + 16B].D.196832.D.152781._vptr._State_baseV2
 # C:/msys64/ucrt64/include/c++/13.1.0/bits/shared_ptr_base.h:611:       _M_dispose() noexcept
	movq	%rcx, %rbx	 # tmp112, this
 # C:/msys64/ucrt64/include/c++/13.1.0/future:1764: 	if (_M_thread.joinable())
	jne	.L338	 #,
.L325:
 # C:/msys64/ucrt64/include/c++/13.1.0/bits/unique_ptr.h:403: 	if (__ptr != nullptr)
	movq	80(%rbx), %rcx	 # MEM[(struct _Result * &)this_2(D) + 80], _7
 # C:/msys64/ucrt64/include/c++/13.1.0/bits/unique_ptr.h:403: 	if (__ptr != nullptr)
	testq	%rcx, %rcx	 # _7
	je	.L326	 #,
 # C:/msys64/ucrt64/include/c++/13.1.0/future:229: 	void operator()(_Result_base* __fr) const { __fr->_M_destroy(); }
	movq	(%rcx), %rax	 # MEM[(struct _Result_base *)_7]._vptr._Result_base, _8
	leaq	_ZNSt13__future_base7_ResultIvE10_M_destroyEv(%rip), %r8	 #, tmp102
	movq	(%rax), %rdx	 # *_8, _9
	cmpq	%r8, %rdx	 # tmp102, _9
	jne	.L327	 #,
 # C:/msys64/ucrt64/include/c++/13.1.0/future:672:       void _M_destroy() { delete this; }
	call	*16(%rax)	 # MEM[(int (*) () *)_8 + 16B]
.L326:
 # C:/msys64/ucrt64/include/c++/13.1.0/future:1718:     ~_Async_state_commonV2() = default;
	leaq	16+_ZTVNSt13__future_base21_Async_state_commonV2E(%rip), %rax	 #, tmp115
 # C:/msys64/ucrt64/include/c++/13.1.0/bits/std_thread.h:172:       if (joinable())
